
/home/mkulikowski/p4-chips_a2/sw/dev/gpu_drv/chips_a/uproc/sec2_riscv/fmc/_out/sec_gh100/staging/g_partitions_sec_gh100_riscv.elf:     file format elf64-littleriscv


Disassembly of section .partition_shared_code:

0000000000101000 <partition_dispatcher>:
  101000:	0000406f          	j	105000 <partition_wl_entry>
  101004:	00000013          	nop
  101008:	00000013          	nop
  10100c:	00000013          	nop
  101010:	7f10506f          	j	107000 <partition_rtos_entry>
  101014:	00000013          	nop
  101018:	00000013          	nop
  10101c:	00000013          	nop

0000000000101020 <_end>:
  101020:	a001                	j	101020 <_end>
	...

000000000010102e <rpcGetRequest>:

static WL_REQUEST request __attribute__((section(".rpc.request")));
static WL_REPLY reply __attribute__((section(".rpc.reply")));

WL_REQUEST *rpcGetRequest(void)
{
  10102e:	1101                	addi	sp,sp,-32
  101030:	ec06                	sd	ra,24(sp)
  101032:	00080797          	auipc	a5,0x80
  101036:	1fe78793          	addi	a5,a5,510 # 181230 <__stack_chk_guard>
  10103a:	6398                	ld	a4,0(a5)
  10103c:	e43a                	sd	a4,8(sp)
    return &request;
}
  10103e:	6722                	ld	a4,8(sp)
  101040:	639c                	ld	a5,0(a5)
  101042:	00f71963          	bne	a4,a5,101054 <rpcGetRequest+0x26>
  101046:	00080517          	auipc	a0,0x80
  10104a:	fba50513          	addi	a0,a0,-70 # 181000 <request>
  10104e:	60e2                	ld	ra,24(sp)
  101050:	6105                	addi	sp,sp,32
  101052:	8082                	ret
  101054:	05a000ef          	jal	ra,1010ae <__stack_chk_fail>

0000000000101058 <rpcGetReply>:

WL_REPLY *rpcGetReply(void)
{
  101058:	1101                	addi	sp,sp,-32
  10105a:	ec06                	sd	ra,24(sp)
  10105c:	00080797          	auipc	a5,0x80
  101060:	1d478793          	addi	a5,a5,468 # 181230 <__stack_chk_guard>
  101064:	6398                	ld	a4,0(a5)
  101066:	e43a                	sd	a4,8(sp)
    return &reply;
}
  101068:	6722                	ld	a4,8(sp)
  10106a:	639c                	ld	a5,0(a5)
  10106c:	00f71963          	bne	a4,a5,10107e <rpcGetReply+0x26>
  101070:	00080517          	auipc	a0,0x80
  101074:	1b050513          	addi	a0,a0,432 # 181220 <reply>
  101078:	60e2                	ld	ra,24(sp)
  10107a:	6105                	addi	sp,sp,32
  10107c:	8082                	ret
  10107e:	030000ef          	jal	ra,1010ae <__stack_chk_fail>
  101082:	0000                	unimp
  101084:	0000                	unimp
	...

0000000000101088 <digits.1050>:
  101088:	3130 3332 3534 3736 3938 6261 6463 6665     0123456789abcdef
  101098:	6867 6a69 6c6b 6e6d 706f 7271 7473 7675     ghijklmnopqrstuv
  1010a8:	7877 7a79 0000                              wxyz..

00000000001010ae <__stack_chk_fail>:
  1010ae:	0040006f          	j	1010b2 <riscvPanic>

00000000001010b2 <riscvPanic>:
  1010b2:	48a1                	li	a7,8
  1010b4:	4801                	li	a6,0
  1010b6:	00000073          	ecall
  1010ba:	a001                	j	1010ba <riscvPanic+0x8>

00000000001010bc <printBufferIsFull>:
  1010bc:	1101                	addi	sp,sp,-32
  1010be:	ec06                	sd	ra,24(sp)
  1010c0:	00080717          	auipc	a4,0x80
  1010c4:	17070713          	addi	a4,a4,368 # 181230 <__stack_chk_guard>
  1010c8:	631c                	ld	a5,0(a4)
  1010ca:	e43e                	sd	a5,8(sp)
  1010cc:	00080797          	auipc	a5,0x80
  1010d0:	1cc78793          	addi	a5,a5,460 # 181298 <printBuffer>
  1010d4:	43d4                	lw	a3,4(a5)
  1010d6:	4790                	lw	a2,8(a5)
  1010d8:	0016851b          	addiw	a0,a3,1
  1010dc:	00c56363          	bltu	a0,a2,1010e2 <printBufferIsFull+0x26>
  1010e0:	9d11                	subw	a0,a0,a2
  1010e2:	00080697          	auipc	a3,0x80
  1010e6:	1ce68693          	addi	a3,a3,462 # 1812b0 <printBufferTarget>
  1010ea:	6294                	ld	a3,0(a3)
  1010ec:	4294                	lw	a3,0(a3)
  1010ee:	2681                	sext.w	a3,a3
  1010f0:	00080617          	auipc	a2,0x80
  1010f4:	1ad62423          	sw	a3,424(a2) # 181298 <printBuffer>
  1010f8:	00a69e63          	bne	a3,a0,101114 <printBufferIsFull+0x58>
  1010fc:	4605                	li	a2,1
  1010fe:	1676                	slli	a2,a2,0x3d
  101100:	00080697          	auipc	a3,0x80
  101104:	1bc6e683          	lwu	a3,444(a3) # 1812bc <queueTailAddr>
  101108:	96b2                	add	a3,a3,a2
  10110a:	4294                	lw	a3,0(a3)
  10110c:	00080617          	auipc	a2,0x80
  101110:	18d62623          	sw	a3,396(a2) # 181298 <printBuffer>
  101114:	439c                	lw	a5,0(a5)
  101116:	66a2                	ld	a3,8(sp)
  101118:	40a78533          	sub	a0,a5,a0
  10111c:	631c                	ld	a5,0(a4)
  10111e:	00153513          	seqz	a0,a0
  101122:	00f68463          	beq	a3,a5,10112a <printBufferIsFull+0x6e>
  101126:	f89ff0ef          	jal	ra,1010ae <__stack_chk_fail>
  10112a:	60e2                	ld	ra,24(sp)
  10112c:	6105                	addi	sp,sp,32
  10112e:	8082                	ret

0000000000101130 <debugLogsFlush>:
  101130:	1101                	addi	sp,sp,-32
  101132:	ec06                	sd	ra,24(sp)
  101134:	00080797          	auipc	a5,0x80
  101138:	0fc78793          	addi	a5,a5,252 # 181230 <__stack_chk_guard>
  10113c:	6398                	ld	a4,0(a5)
  10113e:	e43a                	sd	a4,8(sp)
  101140:	0330000f          	fence	rw,rw
  101144:	00080717          	auipc	a4,0x80
  101148:	15470713          	addi	a4,a4,340 # 181298 <printBuffer>
  10114c:	4350                	lw	a2,4(a4)
  10114e:	4685                	li	a3,1
  101150:	00080717          	auipc	a4,0x80
  101154:	16876703          	lwu	a4,360(a4) # 1812b8 <queueHeadAddr>
  101158:	16f6                	slli	a3,a3,0x3d
  10115a:	9736                	add	a4,a4,a3
  10115c:	c310                	sw	a2,0(a4)
  10115e:	00080717          	auipc	a4,0x80
  101162:	15270713          	addi	a4,a4,338 # 1812b0 <printBufferTarget>
  101166:	6318                	ld	a4,0(a4)
  101168:	c350                	sw	a2,4(a4)
  10116a:	00080717          	auipc	a4,0x80
  10116e:	15774703          	lbu	a4,343(a4) # 1812c1 <printBufferInterrupt>
  101172:	ef01                	bnez	a4,10118a <debugLogsFlush+0x5a>
  101174:	01400737          	lui	a4,0x1400
  101178:	04000693          	li	a3,64
  10117c:	c314                	sw	a3,0(a4)
  10117e:	6722                	ld	a4,8(sp)
  101180:	639c                	ld	a5,0(a5)
  101182:	00f70963          	beq	a4,a5,101194 <debugLogsFlush+0x64>
  101186:	f29ff0ef          	jal	ra,1010ae <__stack_chk_fail>
  10118a:	01400737          	lui	a4,0x1400
  10118e:	08000693          	li	a3,128
  101192:	b7ed                	j	10117c <debugLogsFlush+0x4c>
  101194:	60e2                	ld	ra,24(sp)
  101196:	6105                	addi	sp,sp,32
  101198:	8082                	ret

000000000010119a <debugPutchar>:
  10119a:	7179                	addi	sp,sp,-48
  10119c:	ec26                	sd	s1,24(sp)
  10119e:	00080497          	auipc	s1,0x80
  1011a2:	09248493          	addi	s1,s1,146 # 181230 <__stack_chk_guard>
  1011a6:	609c                	ld	a5,0(s1)
  1011a8:	f022                	sd	s0,32(sp)
  1011aa:	f406                	sd	ra,40(sp)
  1011ac:	842a                	mv	s0,a0
  1011ae:	e43e                	sd	a5,8(sp)
  1011b0:	f0dff0ef          	jal	ra,1010bc <printBufferIsFull>
  1011b4:	c511                	beqz	a0,1011c0 <debugPutchar+0x26>
  1011b6:	f7bff0ef          	jal	ra,101130 <debugLogsFlush>
  1011ba:	f03ff0ef          	jal	ra,1010bc <printBufferIsFull>
  1011be:	fd75                	bnez	a0,1011ba <debugPutchar+0x20>
  1011c0:	47a9                	li	a5,10
  1011c2:	00f41363          	bne	s0,a5,1011c8 <debugPutchar+0x2e>
  1011c6:	4401                	li	s0,0
  1011c8:	00080697          	auipc	a3,0x80
  1011cc:	0d068693          	addi	a3,a3,208 # 181298 <printBuffer>
  1011d0:	42dc                	lw	a5,4(a3)
  1011d2:	00080717          	auipc	a4,0x80
  1011d6:	0d670713          	addi	a4,a4,214 # 1812a8 <printBufferData>
  1011da:	6318                	ld	a4,0(a4)
  1011dc:	02079613          	slli	a2,a5,0x20
  1011e0:	9201                	srli	a2,a2,0x20
  1011e2:	9732                	add	a4,a4,a2
  1011e4:	0ff47413          	andi	s0,s0,255
  1011e8:	0017861b          	addiw	a2,a5,1
  1011ec:	00870023          	sb	s0,0(a4)
  1011f0:	00080717          	auipc	a4,0x80
  1011f4:	0ac72623          	sw	a2,172(a4) # 18129c <printBuffer+0x4>
  1011f8:	4698                	lw	a4,8(a3)
  1011fa:	00e66863          	bltu	a2,a4,10120a <debugPutchar+0x70>
  1011fe:	40e607bb          	subw	a5,a2,a4
  101202:	00080717          	auipc	a4,0x80
  101206:	08f72d23          	sw	a5,154(a4) # 18129c <printBuffer+0x4>
  10120a:	6722                	ld	a4,8(sp)
  10120c:	609c                	ld	a5,0(s1)
  10120e:	00f70463          	beq	a4,a5,101216 <debugPutchar+0x7c>
  101212:	e9dff0ef          	jal	ra,1010ae <__stack_chk_fail>
  101216:	70a2                	ld	ra,40(sp)
  101218:	7402                	ld	s0,32(sp)
  10121a:	64e2                	ld	s1,24(sp)
  10121c:	6145                	addi	sp,sp,48
  10121e:	8082                	ret

0000000000101220 <printInitEx>:
  101220:	1101                	addi	sp,sp,-32
  101222:	ec06                	sd	ra,24(sp)
  101224:	00080817          	auipc	a6,0x80
  101228:	00c80813          	addi	a6,a6,12 # 181230 <__stack_chk_guard>
  10122c:	00083783          	ld	a5,0(a6)
  101230:	e43e                	sd	a5,8(sp)
  101232:	e909                	bnez	a0,101244 <printInitEx+0x24>
  101234:	4501                	li	a0,0
  101236:	6722                	ld	a4,8(sp)
  101238:	00083783          	ld	a5,0(a6)
  10123c:	0cf70d63          	beq	a4,a5,101316 <printInitEx+0xf6>
  101240:	e6fff0ef          	jal	ra,1010ae <__stack_chk_fail>
  101244:	0075f793          	andi	a5,a1,7
  101248:	f7f5                	bnez	a5,101234 <printInitEx+0x14>
  10124a:	47fd                	li	a5,31
  10124c:	feb7f4e3          	bleu	a1,a5,101234 <printInitEx+0x14>
  101250:	00757793          	andi	a5,a0,7
  101254:	f3e5                	bnez	a5,101234 <printInitEx+0x14>
  101256:	00080797          	auipc	a5,0x80
  10125a:	06c7a123          	sw	a2,98(a5) # 1812b8 <queueHeadAddr>
  10125e:	00080797          	auipc	a5,0x80
  101262:	04d7af23          	sw	a3,94(a5) # 1812bc <queueTailAddr>
  101266:	4785                	li	a5,1
  101268:	fce7e6e3          	bltu	a5,a4,101234 <printInitEx+0x14>
  10126c:	00080897          	auipc	a7,0x80
  101270:	04e88aa3          	sb	a4,85(a7) # 1812c1 <printBufferInterrupt>
  101274:	00080717          	auipc	a4,0x80
  101278:	02a73a23          	sd	a0,52(a4) # 1812a8 <printBufferData>
  10127c:	ff05871b          	addiw	a4,a1,-16
  101280:	00080897          	auipc	a7,0x80
  101284:	02e8a023          	sw	a4,32(a7) # 1812a0 <printBuffer+0x8>
  101288:	f007c8b7          	lui	a7,0xf007c
  10128c:	a118889b          	addiw	a7,a7,-1519
  101290:	00080e17          	auipc	t3,0x80
  101294:	011e2a23          	sw	a7,20(t3) # 1812a4 <printBuffer+0xc>
  101298:	02071893          	slli	a7,a4,0x20
  10129c:	0208d893          	srli	a7,a7,0x20
  1012a0:	1682                	slli	a3,a3,0x20
  1012a2:	17f6                	slli	a5,a5,0x3d
  1012a4:	98aa                	add	a7,a7,a0
  1012a6:	9281                	srli	a3,a3,0x20
  1012a8:	1602                	slli	a2,a2,0x20
  1012aa:	00088023          	sb	zero,0(a7) # fffffffff007c000 <_partition_rtos_stack_top+0xffffffffefef71f0>
  1012ae:	96be                	add	a3,a3,a5
  1012b0:	9201                	srli	a2,a2,0x20
  1012b2:	4294                	lw	a3,0(a3)
  1012b4:	963e                	add	a2,a2,a5
  1012b6:	421c                	lw	a5,0(a2)
  1012b8:	2681                	sext.w	a3,a3
  1012ba:	0007031b          	sext.w	t1,a4
  1012be:	00080897          	auipc	a7,0x80
  1012c2:	fcd8ad23          	sw	a3,-38(a7) # 181298 <printBuffer>
  1012c6:	2781                	sext.w	a5,a5
  1012c8:	0467f063          	bleu	t1,a5,101308 <printInitEx+0xe8>
  1012cc:	00080617          	auipc	a2,0x80
  1012d0:	fcf62823          	sw	a5,-48(a2) # 18129c <printBuffer+0x4>
  1012d4:	15c1                	addi	a1,a1,-16
  1012d6:	952e                	add	a0,a0,a1
  1012d8:	00080797          	auipc	a5,0x80
  1012dc:	fca7bc23          	sd	a0,-40(a5) # 1812b0 <printBufferTarget>
  1012e0:	00080797          	auipc	a5,0x80
  1012e4:	fb878793          	addi	a5,a5,-72 # 181298 <printBuffer>
  1012e8:	43dc                	lw	a5,4(a5)
  1012ea:	c114                	sw	a3,0(a0)
  1012ec:	c15c                	sw	a5,4(a0)
  1012ee:	f007c7b7          	lui	a5,0xf007c
  1012f2:	c518                	sw	a4,8(a0)
  1012f4:	a117879b          	addiw	a5,a5,-1519
  1012f8:	c55c                	sw	a5,12(a0)
  1012fa:	4785                	li	a5,1
  1012fc:	00080717          	auipc	a4,0x80
  101300:	fcf70223          	sb	a5,-60(a4) # 1812c0 <bPrintEnabled>
  101304:	4505                	li	a0,1
  101306:	bf05                	j	101236 <printInitEx+0x16>
  101308:	9f99                	subw	a5,a5,a4
  10130a:	00080897          	auipc	a7,0x80
  10130e:	f8f8a923          	sw	a5,-110(a7) # 18129c <printBuffer+0x4>
  101312:	c21c                	sw	a5,0(a2)
  101314:	b7c1                	j	1012d4 <printInitEx+0xb4>
  101316:	60e2                	ld	ra,24(sp)
  101318:	6105                	addi	sp,sp,32
  10131a:	8082                	ret

000000000010131c <printf>:
  10131c:	711d                	addi	sp,sp,-96
  10131e:	e822                	sd	s0,16(sp)
  101320:	fc36                	sd	a3,56(sp)
  101322:	e4be                	sd	a5,72(sp)
  101324:	ec06                	sd	ra,24(sp)
  101326:	00080797          	auipc	a5,0x80
  10132a:	f0a78793          	addi	a5,a5,-246 # 181230 <__stack_chk_guard>
  10132e:	f42e                	sd	a1,40(sp)
  101330:	f832                	sd	a2,48(sp)
  101332:	e0ba                	sd	a4,64(sp)
  101334:	e8c2                	sd	a6,80(sp)
  101336:	ecc6                	sd	a7,88(sp)
  101338:	6398                	ld	a4,0(a5)
  10133a:	1034                	addi	a3,sp,40
  10133c:	e036                	sd	a3,0(sp)
  10133e:	e43a                	sd	a4,8(sp)
  101340:	00080717          	auipc	a4,0x80
  101344:	f8074703          	lbu	a4,-128(a4) # 1812c0 <bPrintEnabled>
  101348:	843e                	mv	s0,a5
  10134a:	cb19                	beqz	a4,101360 <printf+0x44>
  10134c:	862a                	mv	a2,a0
  10134e:	4581                	li	a1,0
  101350:	00000517          	auipc	a0,0x0
  101354:	e4a50513          	addi	a0,a0,-438 # 10119a <debugPutchar>
  101358:	01e000ef          	jal	ra,101376 <vprintfmt>
  10135c:	dd5ff0ef          	jal	ra,101130 <debugLogsFlush>
  101360:	6722                	ld	a4,8(sp)
  101362:	601c                	ld	a5,0(s0)
  101364:	4501                	li	a0,0
  101366:	00f70463          	beq	a4,a5,10136e <printf+0x52>
  10136a:	d45ff0ef          	jal	ra,1010ae <__stack_chk_fail>
  10136e:	60e2                	ld	ra,24(sp)
  101370:	6442                	ld	s0,16(sp)
  101372:	6125                	addi	sp,sp,96
  101374:	8082                	ret

0000000000101376 <vprintfmt>:
  101376:	7155                	addi	sp,sp,-208
  101378:	02000793          	li	a5,32
  10137c:	e1a2                	sd	s0,192(sp)
  10137e:	fd26                	sd	s1,184(sp)
  101380:	f94a                	sd	s2,176(sp)
  101382:	ed56                	sd	s5,152(sp)
  101384:	e55e                	sd	s7,136(sp)
  101386:	e586                	sd	ra,200(sp)
  101388:	f54e                	sd	s3,168(sp)
  10138a:	f152                	sd	s4,160(sp)
  10138c:	e95a                	sd	s6,144(sp)
  10138e:	e162                	sd	s8,128(sp)
  101390:	fce6                	sd	s9,120(sp)
  101392:	f8ea                	sd	s10,112(sp)
  101394:	f4ee                	sd	s11,104(sp)
  101396:	84aa                	mv	s1,a0
  101398:	892e                	mv	s2,a1
  10139a:	8436                	mv	s0,a3
  10139c:	e03e                	sd	a5,0(sp)
  10139e:	4a81                	li	s5,0
  1013a0:	02500b93          	li	s7,37
  1013a4:	00064503          	lbu	a0,0(a2)
  1013a8:	00160993          	addi	s3,a2,1
  1013ac:	c959                	beqz	a0,101442 <vprintfmt+0xcc>
  1013ae:	85ca                	mv	a1,s2
  1013b0:	27751d63          	bne	a0,s7,10162a <vprintfmt+0x2b4>
  1013b4:	00164783          	lbu	a5,1(a2)
  1013b8:	02300713          	li	a4,35
  1013bc:	4b01                	li	s6,0
  1013be:	00e79563          	bne	a5,a4,1013c8 <vprintfmt+0x52>
  1013c2:	00260993          	addi	s3,a2,2
  1013c6:	4b05                	li	s6,1
  1013c8:	0009c703          	lbu	a4,0(s3)
  1013cc:	03000793          	li	a5,48
  1013d0:	00f71463          	bne	a4,a5,1013d8 <vprintfmt+0x62>
  1013d4:	0985                	addi	s3,s3,1
  1013d6:	e03e                	sd	a5,0(sp)
  1013d8:	87ce                	mv	a5,s3
  1013da:	4c81                	li	s9,0
  1013dc:	45a5                	li	a1,9
  1013de:	a039                	j	1013ec <vprintfmt+0x76>
  1013e0:	47a9                	li	a5,10
  1013e2:	0397883b          	mulw	a6,a5,s9
  1013e6:	87b2                	mv	a5,a2
  1013e8:	01068cbb          	addw	s9,a3,a6
  1013ec:	0007c703          	lbu	a4,0(a5)
  1013f0:	00178613          	addi	a2,a5,1
  1013f4:	fd07069b          	addiw	a3,a4,-48
  1013f8:	0ff6f513          	andi	a0,a3,255
  1013fc:	fea5f2e3          	bleu	a0,a1,1013e0 <vprintfmt+0x6a>
  101400:	07000693          	li	a3,112
  101404:	04d70f63          	beq	a4,a3,101462 <vprintfmt+0xec>
  101408:	06c00593          	li	a1,108
  10140c:	4681                	li	a3,0
  10140e:	00b71863          	bne	a4,a1,10141e <vprintfmt+0xa8>
  101412:	0017c683          	lbu	a3,1(a5)
  101416:	04e69963          	bne	a3,a4,101468 <vprintfmt+0xf2>
  10141a:	0789                	addi	a5,a5,2
  10141c:	4689                	li	a3,2
  10141e:	00178993          	addi	s3,a5,1
  101422:	0007c783          	lbu	a5,0(a5)
  101426:	06900713          	li	a4,105
  10142a:	04e78963          	beq	a5,a4,10147c <vprintfmt+0x106>
  10142e:	04f76a63          	bltu	a4,a5,101482 <vprintfmt+0x10c>
  101432:	05800713          	li	a4,88
  101436:	06e78463          	beq	a5,a4,10149e <vprintfmt+0x128>
  10143a:	02f76963          	bltu	a4,a5,10146c <vprintfmt+0xf6>
  10143e:	1f778363          	beq	a5,s7,101624 <vprintfmt+0x2ae>
  101442:	60ae                	ld	ra,200(sp)
  101444:	640e                	ld	s0,192(sp)
  101446:	8556                	mv	a0,s5
  101448:	74ea                	ld	s1,184(sp)
  10144a:	794a                	ld	s2,176(sp)
  10144c:	79aa                	ld	s3,168(sp)
  10144e:	7a0a                	ld	s4,160(sp)
  101450:	6aea                	ld	s5,152(sp)
  101452:	6b4a                	ld	s6,144(sp)
  101454:	6baa                	ld	s7,136(sp)
  101456:	6c0a                	ld	s8,128(sp)
  101458:	7ce6                	ld	s9,120(sp)
  10145a:	7d46                	ld	s10,112(sp)
  10145c:	7da6                	ld	s11,104(sp)
  10145e:	6169                	addi	sp,sp,208
  101460:	8082                	ret
  101462:	4b05                	li	s6,1
  101464:	4685                	li	a3,1
  101466:	bf65                	j	10141e <vprintfmt+0xa8>
  101468:	87b2                	mv	a5,a2
  10146a:	bfed                	j	101464 <vprintfmt+0xee>
  10146c:	06300713          	li	a4,99
  101470:	1ae78263          	beq	a5,a4,101614 <vprintfmt+0x29e>
  101474:	06400713          	li	a4,100
  101478:	fce795e3          	bne	a5,a4,101442 <vprintfmt+0xcc>
  10147c:	4705                	li	a4,1
  10147e:	4d29                	li	s10,10
  101480:	a81d                	j	1014b6 <vprintfmt+0x140>
  101482:	07300713          	li	a4,115
  101486:	16e78763          	beq	a5,a4,1015f4 <vprintfmt+0x27e>
  10148a:	00f76d63          	bltu	a4,a5,1014a4 <vprintfmt+0x12e>
  10148e:	06f00713          	li	a4,111
  101492:	02e78063          	beq	a5,a4,1014b2 <vprintfmt+0x13c>
  101496:	07000713          	li	a4,112
  10149a:	fae794e3          	bne	a5,a4,101442 <vprintfmt+0xcc>
  10149e:	4701                	li	a4,0
  1014a0:	4d41                	li	s10,16
  1014a2:	a811                	j	1014b6 <vprintfmt+0x140>
  1014a4:	07500713          	li	a4,117
  1014a8:	04e78f63          	beq	a5,a4,101506 <vprintfmt+0x190>
  1014ac:	07800713          	li	a4,120
  1014b0:	b7ed                	j	10149a <vprintfmt+0x124>
  1014b2:	4701                	li	a4,0
  1014b4:	4d21                	li	s10,8
  1014b6:	4789                	li	a5,2
  1014b8:	00840a13          	addi	s4,s0,8
  1014bc:	04f69763          	bne	a3,a5,10150a <vprintfmt+0x194>
  1014c0:	6000                	ld	s0,0(s0)
  1014c2:	c711                	beqz	a4,1014ce <vprintfmt+0x158>
  1014c4:	00045563          	bgez	s0,1014ce <vprintfmt+0x158>
  1014c8:	40800433          	neg	s0,s0
  1014cc:	577d                	li	a4,-1
  1014ce:	000d0c1b          	sext.w	s8,s10
  1014d2:	85a2                	mv	a1,s0
  1014d4:	4681                	li	a3,0
  1014d6:	03a5d533          	divu	a0,a1,s10
  1014da:	00168d9b          	addiw	s11,a3,1
  1014de:	05a5f363          	bleu	s10,a1,101524 <vprintfmt+0x1ae>
  1014e2:	55fd                	li	a1,-1
  1014e4:	00b71463          	bne	a4,a1,1014ec <vprintfmt+0x176>
  1014e8:	00268d9b          	addiw	s11,a3,2
  1014ec:	000b0663          	beqz	s6,1014f8 <vprintfmt+0x182>
  1014f0:	46a1                	li	a3,8
  1014f2:	02dd1c63          	bne	s10,a3,10152a <vprintfmt+0x1b4>
  1014f6:	2d85                	addiw	s11,s11,1
  1014f8:	0bbcc563          	blt	s9,s11,1015a2 <vprintfmt+0x22c>
  1014fc:	41bc86bb          	subw	a3,s9,s11
  101500:	537d                	li	t1,-1
  101502:	4e02                	lw	t3,0(sp)
  101504:	a091                	j	101548 <vprintfmt+0x1d2>
  101506:	4701                	li	a4,0
  101508:	bf9d                	j	10147e <vprintfmt+0x108>
  10150a:	4785                	li	a5,1
  10150c:	faf68ae3          	beq	a3,a5,1014c0 <vprintfmt+0x14a>
  101510:	4000                	lw	s0,0(s0)
  101512:	c711                	beqz	a4,10151e <vprintfmt+0x1a8>
  101514:	00045563          	bgez	s0,10151e <vprintfmt+0x1a8>
  101518:	4080043b          	negw	s0,s0
  10151c:	577d                	li	a4,-1
  10151e:	1402                	slli	s0,s0,0x20
  101520:	9001                	srli	s0,s0,0x20
  101522:	b775                	j	1014ce <vprintfmt+0x158>
  101524:	85aa                	mv	a1,a0
  101526:	86ee                	mv	a3,s11
  101528:	b77d                	j	1014d6 <vprintfmt+0x160>
  10152a:	46c1                	li	a3,16
  10152c:	fcdc16e3          	bne	s8,a3,1014f8 <vprintfmt+0x182>
  101530:	2d89                	addiw	s11,s11,2
  101532:	b7d9                	j	1014f8 <vprintfmt+0x182>
  101534:	8572                	mv	a0,t3
  101536:	85ca                	mv	a1,s2
  101538:	ec36                	sd	a3,24(sp)
  10153a:	e83a                	sd	a4,16(sp)
  10153c:	e472                	sd	t3,8(sp)
  10153e:	9482                	jalr	s1
  101540:	6e22                	ld	t3,8(sp)
  101542:	6742                	ld	a4,16(sp)
  101544:	66e2                	ld	a3,24(sp)
  101546:	537d                	li	t1,-1
  101548:	36fd                	addiw	a3,a3,-1
  10154a:	fe6695e3          	bne	a3,t1,101534 <vprintfmt+0x1be>
  10154e:	00d71763          	bne	a4,a3,10155c <vprintfmt+0x1e6>
  101552:	85ca                	mv	a1,s2
  101554:	02d00513          	li	a0,45
  101558:	9482                	jalr	s1
  10155a:	3dfd                	addiw	s11,s11,-1
  10155c:	000b0a63          	beqz	s6,101570 <vprintfmt+0x1fa>
  101560:	4721                	li	a4,8
  101562:	04ed1363          	bne	s10,a4,1015a8 <vprintfmt+0x232>
  101566:	85ca                	mv	a1,s2
  101568:	03000513          	li	a0,48
  10156c:	9482                	jalr	s1
  10156e:	3dfd                	addiw	s11,s11,-1
  101570:	04000713          	li	a4,64
  101574:	000d8c1b          	sext.w	s8,s11
  101578:	01b75463          	ble	s11,a4,101580 <vprintfmt+0x20a>
  10157c:	04000c13          	li	s8,64
  101580:	87e2                	mv	a5,s8
  101582:	56fd                	li	a3,-1
  101584:	17fd                	addi	a5,a5,-1
  101586:	0007871b          	sext.w	a4,a5
  10158a:	02d71c63          	bne	a4,a3,1015c2 <vprintfmt+0x24c>
  10158e:	4401                	li	s0,0
  101590:	0004079b          	sext.w	a5,s0
  101594:	0587c863          	blt	a5,s8,1015e4 <vprintfmt+0x26e>
  101598:	019a8abb          	addw	s5,s5,s9
  10159c:	8452                	mv	s0,s4
  10159e:	864e                	mv	a2,s3
  1015a0:	b511                	j	1013a4 <vprintfmt+0x2e>
  1015a2:	8cee                	mv	s9,s11
  1015a4:	4681                	li	a3,0
  1015a6:	bfa9                	j	101500 <vprintfmt+0x18a>
  1015a8:	4741                	li	a4,16
  1015aa:	fcec13e3          	bne	s8,a4,101570 <vprintfmt+0x1fa>
  1015ae:	85ca                	mv	a1,s2
  1015b0:	03000513          	li	a0,48
  1015b4:	9482                	jalr	s1
  1015b6:	85ca                	mv	a1,s2
  1015b8:	07800513          	li	a0,120
  1015bc:	9482                	jalr	s1
  1015be:	3df9                	addiw	s11,s11,-2
  1015c0:	bf45                	j	101570 <vprintfmt+0x1fa>
  1015c2:	1018                	addi	a4,sp,32
  1015c4:	00f705b3          	add	a1,a4,a5
  1015c8:	03a47733          	remu	a4,s0,s10
  1015cc:	00000617          	auipc	a2,0x0
  1015d0:	abc60613          	addi	a2,a2,-1348 # 101088 <digits.1050>
  1015d4:	9732                	add	a4,a4,a2
  1015d6:	00074703          	lbu	a4,0(a4)
  1015da:	03a45433          	divu	s0,s0,s10
  1015de:	00e58023          	sb	a4,0(a1)
  1015e2:	b74d                	j	101584 <vprintfmt+0x20e>
  1015e4:	101c                	addi	a5,sp,32
  1015e6:	97a2                	add	a5,a5,s0
  1015e8:	0007c503          	lbu	a0,0(a5)
  1015ec:	85ca                	mv	a1,s2
  1015ee:	0405                	addi	s0,s0,1
  1015f0:	9482                	jalr	s1
  1015f2:	bf79                	j	101590 <vprintfmt+0x21a>
  1015f4:	00840a13          	addi	s4,s0,8
  1015f8:	00043c03          	ld	s8,0(s0)
  1015fc:	4401                	li	s0,0
  1015fe:	00040c9b          	sext.w	s9,s0
  101602:	0405                	addi	s0,s0,1
  101604:	008c07b3          	add	a5,s8,s0
  101608:	fff7c503          	lbu	a0,-1(a5)
  10160c:	d551                	beqz	a0,101598 <vprintfmt+0x222>
  10160e:	85ca                	mv	a1,s2
  101610:	9482                	jalr	s1
  101612:	b7f5                	j	1015fe <vprintfmt+0x288>
  101614:	00044503          	lbu	a0,0(s0)
  101618:	85ca                	mv	a1,s2
  10161a:	00840a13          	addi	s4,s0,8
  10161e:	9482                	jalr	s1
  101620:	4c85                	li	s9,1
  101622:	bf9d                	j	101598 <vprintfmt+0x222>
  101624:	85ca                	mv	a1,s2
  101626:	02500513          	li	a0,37
  10162a:	9482                	jalr	s1
  10162c:	8a22                	mv	s4,s0
  10162e:	bfcd                	j	101620 <vprintfmt+0x2aa>

0000000000101630 <memset>:
  101630:	962a                	add	a2,a2,a0
  101632:	87aa                	mv	a5,a0
  101634:	00c79363          	bne	a5,a2,10163a <memset+0xa>
  101638:	8082                	ret
  10163a:	0785                	addi	a5,a5,1
  10163c:	feb78fa3          	sb	a1,-1(a5)
  101640:	bfd5                	j	101634 <memset+0x4>

0000000000101642 <createDmaCmd>:
  101642:	1101                	addi	sp,sp,-32
  101644:	882a                	mv	a6,a0
  101646:	ec06                	sd	ra,24(sp)
  101648:	00080517          	auipc	a0,0x80
  10164c:	be850513          	addi	a0,a0,-1048 # 181230 <__stack_chk_guard>
  101650:	00053883          	ld	a7,0(a0)
  101654:	fff84313          	not	t1,a6
  101658:	e446                	sd	a7,8(sp)
  10165a:	88aa                	mv	a7,a0
  10165c:	457d                	li	a0,31
  10165e:	02b36e63          	bltu	t1,a1,10169a <createDmaCmd+0x58>
  101662:	00100337          	lui	t1,0x100
  101666:	02686a63          	bltu	a6,t1,10169a <createDmaCmd+0x58>
  10166a:	95c2                	add	a1,a1,a6
  10166c:	0011e337          	lui	t1,0x11e
  101670:	0265fc63          	bleu	t1,a1,1016a8 <createDmaCmd+0x66>
  101674:	fff00537          	lui	a0,0xfff00
  101678:	0105083b          	addw	a6,a0,a6
  10167c:	45c1                	li	a1,16
  10167e:	e299                	bnez	a3,101684 <createDmaCmd+0x42>
  101680:	0205e593          	ori	a1,a1,32
  101684:	469d                	li	a3,7
  101686:	457d                	li	a0,31
  101688:	00c6e963          	bltu	a3,a2,10169a <createDmaCmd+0x58>
  10168c:	00c6161b          	slliw	a2,a2,0xc
  101690:	8dd1                	or	a1,a1,a2
  101692:	c30c                	sw	a1,0(a4)
  101694:	0107a023          	sw	a6,0(a5)
  101698:	4501                	li	a0,0
  10169a:	6722                	ld	a4,8(sp)
  10169c:	0008b783          	ld	a5,0(a7)
  1016a0:	02f70263          	beq	a4,a5,1016c4 <createDmaCmd+0x82>
  1016a4:	a0bff0ef          	jal	ra,1010ae <__stack_chk_fail>
  1016a8:	00180337          	lui	t1,0x180
  1016ac:	fe6867e3          	bltu	a6,t1,10169a <createDmaCmd+0x58>
  1016b0:	00190337          	lui	t1,0x190
  1016b4:	fe65f3e3          	bleu	t1,a1,10169a <createDmaCmd+0x58>
  1016b8:	ffe80537          	lui	a0,0xffe80
  1016bc:	0105083b          	addw	a6,a0,a6
  1016c0:	65c1                	lui	a1,0x10
  1016c2:	bf75                	j	10167e <createDmaCmd+0x3c>
  1016c4:	60e2                	ld	ra,24(sp)
  1016c6:	6105                	addi	sp,sp,32
  1016c8:	8082                	ret

00000000001016ca <dmaXfer>:
  1016ca:	00080317          	auipc	t1,0x80
  1016ce:	b6630313          	addi	t1,t1,-1178 # 181230 <__stack_chk_guard>
  1016d2:	00033783          	ld	a5,0(t1)
  1016d6:	7179                	addi	sp,sp,-48
  1016d8:	02051713          	slli	a4,a0,0x20
  1016dc:	e43e                	sd	a5,8(sp)
  1016de:	9301                	srli	a4,a4,0x20
  1016e0:	00b667b3          	or	a5,a2,a1
  1016e4:	8fd9                	or	a5,a5,a4
  1016e6:	f406                	sd	ra,40(sp)
  1016e8:	f022                	sd	s0,32(sp)
  1016ea:	ec26                	sd	s1,24(sp)
  1016ec:	e84a                	sd	s2,16(sp)
  1016ee:	8b8d                	andi	a5,a5,3
  1016f0:	cb89                	beqz	a5,101702 <dmaXfer+0x38>
  1016f2:	457d                	li	a0,31
  1016f4:	6722                	ld	a4,8(sp)
  1016f6:	00033783          	ld	a5,0(t1)
  1016fa:	10f70063          	beq	a4,a5,1017fa <dmaXfer+0x130>
  1016fe:	9b1ff0ef          	jal	ra,1010ae <__stack_chk_fail>
  101702:	01404837          	lui	a6,0x1404
  101706:	30082023          	sw	zero,768(a6) # 1404300 <_partition_rtos_stack_top+0x127f4f0>
  10170a:	fff74713          	not	a4,a4
  10170e:	0ff5f893          	andi	a7,a1,255
  101712:	fec760e3          	bltu	a4,a2,1016f2 <dmaXfer+0x28>
  101716:	fff8c793          	not	a5,a7
  10171a:	fcc7ece3          	bltu	a5,a2,1016f2 <dmaXfer+0x28>
  10171e:	0085d793          	srli	a5,a1,0x8
  101722:	2781                	sext.w	a5,a5
  101724:	40f82023          	sw	a5,1024(a6)
  101728:	91a1                	srli	a1,a1,0x28
  10172a:	014057b7          	lui	a5,0x1405
  10172e:	ff010eb7          	lui	t4,0xff010
  101732:	f0f0ff37          	lui	t5,0xf0f0f
  101736:	ccccdfb7          	lui	t6,0xccccd
  10173a:	aaaab2b7          	lui	t0,0xaaaab
  10173e:	a0b7a023          	sw	a1,-1536(a5) # 1404a00 <_partition_rtos_stack_top+0x127fbf0>
  101742:	01404e37          	lui	t3,0x1404
  101746:	7441                	lui	s0,0xffff0
  101748:	f00e8e93          	addi	t4,t4,-256 # ffffffffff00ff00 <_partition_rtos_stack_top+0xfffffffffee8b0f0>
  10174c:	0f0f0f13          	addi	t5,t5,240 # fffffffff0f0f0f0 <_partition_rtos_stack_top+0xfffffffff0d8a2e0>
  101750:	cccf8f93          	addi	t6,t6,-820 # ffffffffcccccccc <_partition_rtos_stack_top+0xffffffffccb47ebc>
  101754:	aaa28293          	addi	t0,t0,-1366 # ffffffffaaaaaaaa <_partition_rtos_stack_top+0xffffffffaa925c9a>
  101758:	8ff6f693          	andi	a3,a3,-1793
  10175c:	e219                	bnez	a2,101762 <dmaXfer+0x98>
  10175e:	4501                	li	a0,0
  101760:	bf51                	j	1016f4 <dmaXfer+0x2a>
  101762:	600e2783          	lw	a5,1536(t3) # 1404600 <_partition_rtos_stack_top+0x127f7f0>
  101766:	8b85                	andi	a5,a5,1
  101768:	ffed                	bnez	a5,101762 <dmaXfer+0x98>
  10176a:	01156733          	or	a4,a0,a7
  10176e:	10076713          	ori	a4,a4,256
  101772:	40e007bb          	negw	a5,a4
  101776:	50ae2023          	sw	a0,1280(t3)
  10177a:	8f7d                	and	a4,a4,a5
  10177c:	711e2023          	sw	a7,1792(t3)
  101780:	2701                	sext.w	a4,a4
  101782:	02071393          	slli	t2,a4,0x20
  101786:	0203d393          	srli	t2,t2,0x20
  10178a:	06766563          	bltu	a2,t2,1017f4 <dmaXfer+0x12a>
  10178e:	0027559b          	srliw	a1,a4,0x2
  101792:	00bf77b3          	and	a5,t5,a1
  101796:	0085f933          	and	s2,a1,s0
  10179a:	2781                	sext.w	a5,a5
  10179c:	00bef4b3          	and	s1,t4,a1
  1017a0:	00f03833          	snez	a6,a5
  1017a4:	2901                	sext.w	s2,s2
  1017a6:	00bff7b3          	and	a5,t6,a1
  1017aa:	00b2f5b3          	and	a1,t0,a1
  1017ae:	01203933          	snez	s2,s2
  1017b2:	2481                	sext.w	s1,s1
  1017b4:	2581                	sext.w	a1,a1
  1017b6:	0912                	slli	s2,s2,0x4
  1017b8:	009034b3          	snez	s1,s1
  1017bc:	00b035b3          	snez	a1,a1
  1017c0:	048e                	slli	s1,s1,0x3
  1017c2:	2781                	sext.w	a5,a5
  1017c4:	00b965b3          	or	a1,s2,a1
  1017c8:	080a                	slli	a6,a6,0x2
  1017ca:	00f037b3          	snez	a5,a5
  1017ce:	8ccd                	or	s1,s1,a1
  1017d0:	0786                	slli	a5,a5,0x1
  1017d2:	00986833          	or	a6,a6,s1
  1017d6:	0107e7b3          	or	a5,a5,a6
  1017da:	0087979b          	slliw	a5,a5,0x8
  1017de:	7007f793          	andi	a5,a5,1792
  1017e2:	8fd5                	or	a5,a5,a3
  1017e4:	60fe2023          	sw	a5,1536(t3)
  1017e8:	40760633          	sub	a2,a2,t2
  1017ec:	9d39                	addw	a0,a0,a4
  1017ee:	011708bb          	addw	a7,a4,a7
  1017f2:	b7ad                	j	10175c <dmaXfer+0x92>
  1017f4:	0017571b          	srliw	a4,a4,0x1
  1017f8:	b769                	j	101782 <dmaXfer+0xb8>
  1017fa:	70a2                	ld	ra,40(sp)
  1017fc:	7402                	ld	s0,32(sp)
  1017fe:	64e2                	ld	s1,24(sp)
  101800:	6942                	ld	s2,16(sp)
  101802:	6145                	addi	sp,sp,48
  101804:	8082                	ret

0000000000101806 <dmaWaitCompletion>:
  101806:	1101                	addi	sp,sp,-32
  101808:	00080797          	auipc	a5,0x80
  10180c:	a2878793          	addi	a5,a5,-1496 # 181230 <__stack_chk_guard>
  101810:	ec06                	sd	ra,24(sp)
  101812:	6398                	ld	a4,0(a5)
  101814:	01404637          	lui	a2,0x1404
  101818:	e43a                	sd	a4,8(sp)
  10181a:	873e                	mv	a4,a5
  10181c:	60062783          	lw	a5,1536(a2) # 1404600 <_partition_rtos_stack_top+0x127f7f0>
  101820:	2781                	sext.w	a5,a5
  101822:	86be                	mv	a3,a5
  101824:	8b89                	andi	a5,a5,2
  101826:	dbfd                	beqz	a5,10181c <dmaWaitCompletion+0x16>
  101828:	02b69793          	slli	a5,a3,0x2b
  10182c:	0207c663          	bltz	a5,101858 <dmaWaitCompletion+0x52>
  101830:	0140c6b7          	lui	a3,0x140c
  101834:	8006a783          	lw	a5,-2048(a3) # 140b800 <_partition_rtos_stack_top+0x12869f0>
  101838:	4501                	li	a0,0
  10183a:	2781                	sext.w	a5,a5
  10183c:	0047f613          	andi	a2,a5,4
  101840:	c611                	beqz	a2,10184c <dmaWaitCompletion+0x46>
  101842:	0047e793          	ori	a5,a5,4
  101846:	80f6a023          	sw	a5,-2048(a3)
  10184a:	451d                	li	a0,7
  10184c:	66a2                	ld	a3,8(sp)
  10184e:	631c                	ld	a5,0(a4)
  101850:	00f68763          	beq	a3,a5,10185e <dmaWaitCompletion+0x58>
  101854:	85bff0ef          	jal	ra,1010ae <__stack_chk_fail>
  101858:	6541                	lui	a0,0x10
  10185a:	157d                	addi	a0,a0,-1
  10185c:	bfc5                	j	10184c <dmaWaitCompletion+0x46>
  10185e:	60e2                	ld	ra,24(sp)
  101860:	6105                	addi	sp,sp,32
  101862:	8082                	ret

0000000000101864 <dmaPa>:
  101864:	7179                	addi	sp,sp,-48
  101866:	f022                	sd	s0,32(sp)
  101868:	00080417          	auipc	s0,0x80
  10186c:	9c840413          	addi	s0,s0,-1592 # 181230 <__stack_chk_guard>
  101870:	601c                	ld	a5,0(s0)
  101872:	ec26                	sd	s1,24(sp)
  101874:	84b2                	mv	s1,a2
  101876:	e84a                	sd	s2,16(sp)
  101878:	8636                	mv	a2,a3
  10187a:	e43e                	sd	a5,8(sp)
  10187c:	86ba                	mv	a3,a4
  10187e:	892e                	mv	s2,a1
  101880:	878a                	mv	a5,sp
  101882:	0058                	addi	a4,sp,4
  101884:	85a6                	mv	a1,s1
  101886:	f406                	sd	ra,40(sp)
  101888:	dbbff0ef          	jal	ra,101642 <createDmaCmd>
  10188c:	2501                	sext.w	a0,a0
  10188e:	ed09                	bnez	a0,1018a8 <dmaPa+0x44>
  101890:	cc81                	beqz	s1,1018a8 <dmaPa+0x44>
  101892:	4692                	lw	a3,4(sp)
  101894:	4502                	lw	a0,0(sp)
  101896:	8626                	mv	a2,s1
  101898:	85ca                	mv	a1,s2
  10189a:	e31ff0ef          	jal	ra,1016ca <dmaXfer>
  10189e:	2501                	sext.w	a0,a0
  1018a0:	e501                	bnez	a0,1018a8 <dmaPa+0x44>
  1018a2:	f65ff0ef          	jal	ra,101806 <dmaWaitCompletion>
  1018a6:	2501                	sext.w	a0,a0
  1018a8:	6722                	ld	a4,8(sp)
  1018aa:	601c                	ld	a5,0(s0)
  1018ac:	00f70463          	beq	a4,a5,1018b4 <dmaPa+0x50>
  1018b0:	ffeff0ef          	jal	ra,1010ae <__stack_chk_fail>
  1018b4:	70a2                	ld	ra,40(sp)
  1018b6:	7402                	ld	s0,32(sp)
  1018b8:	64e2                	ld	s1,24(sp)
  1018ba:	6942                	ld	s2,16(sp)
  1018bc:	6145                	addi	sp,sp,48
  1018be:	8082                	ret

00000000001018c0 <memcmp>:
  1018c0:	4701                	li	a4,0
  1018c2:	00c71463          	bne	a4,a2,1018ca <memcmp+0xa>
  1018c6:	4781                	li	a5,0
  1018c8:	a821                	j	1018e0 <memcmp+0x20>
  1018ca:	00e587b3          	add	a5,a1,a4
  1018ce:	00e506b3          	add	a3,a0,a4
  1018d2:	0007c783          	lbu	a5,0(a5)
  1018d6:	0006c683          	lbu	a3,0(a3)
  1018da:	0705                	addi	a4,a4,1
  1018dc:	9f95                	subw	a5,a5,a3
  1018de:	d3f5                	beqz	a5,1018c2 <memcmp+0x2>
  1018e0:	853e                	mv	a0,a5
  1018e2:	8082                	ret

00000000001018e4 <memcpy>:
  1018e4:	4781                	li	a5,0
  1018e6:	00f61363          	bne	a2,a5,1018ec <memcpy+0x8>
  1018ea:	8082                	ret
  1018ec:	00f58733          	add	a4,a1,a5
  1018f0:	00074683          	lbu	a3,0(a4)
  1018f4:	00f50733          	add	a4,a0,a5
  1018f8:	0785                	addi	a5,a5,1
  1018fa:	00d70023          	sb	a3,0(a4)
  1018fe:	b7e5                	j	1018e6 <memcpy+0x2>

0000000000101900 <ccc_engine>:
  101900:	1998 0010 0000 0000 1278 0018 0000 0000     ........x.......
  101910:	0011 0000 5061 0000 2000 0000 2fff 0000     ....aP... .../..
  101920:	0001 0000 1000 0000 1fff 0000 0002 0000     ................
  101930:	0000 0000 000b 0000 0015 0000 001f 0000     ................
  101940:	19a8 0010 0000 0000 1278 0018 0000 0000     ........x.......
  101950:	0010 0000 5061 0000 1000 0000 1fff 0000     ....aP..........
	...
  10196c:	0002 0000 0000 0000 000b 0000 0015 0000     ................
  10197c:	001f 0000                                   ....

0000000000101980 <hw_cdev.2592>:
  101980:	1278 0018 0000 0000 1258 0018 0000 0000     x.......X.......
  101990:	1238 0018 0000 0000 4541 3153 6520 676e     8.......AES1 eng
  1019a0:	6e69 0065 0000 0000 4541 3053 6520 676e     ine.....AES0 eng
  1019b0:	6e69 2065 415b 5345 522f 474e 005d 0000     ine [AES/RNG]...
  1019c0:	4e52 3147 0000 0000 4b50 0041 0000 0000     RNG1....PKA.....
  1019d0:	4553 0030 0000 0000 4541 2053 4f44 454e     SE0.....AES DONE
	...
  1019e8:	654b 6f79 2070 6f64 656e 0000 0000 0000     Keyop done......
  1019f8:	4541 2053 5453 5241 0054 0000 0000 0000     AES START.......
  101a08:	6562 6f66 6572 6b20 6c73 746f 6320 656c     before kslot cle
  101a18:	7261 0000 0000 0000 6661 6574 2072 736b     ar......after ks
  101a28:	6f6c 2074 6c63 6165 0072 0000 0000 0000     lot clear.......
  101a38:	4541 2d53 4347 204d 4141 2044 5453 5241     AES-GCM AAD STAR
  101a48:	0054 0000 0000 0000 4541 2053 4347 204d     T.......AES GCM 
  101a58:	4946 414e 204c 5453 5241 0054 0000 0000     FINAL START.....
  101a68:	6661 6574 2072 4541 2053 4347 204d 4946     after AES GCM FI
  101a78:	414e 004c 0000 0000 4343 2043 7261 7469     NAL.....CCC arit
  101a88:	6d68 7465 6369 6520 7272 726f 000a 0000     hmetic error....
  101a98:	0562 0000 0592 0000 0566 0000 056a 0000     b.......f...j...
  101aa8:	056e 0000 0572 0000 0576 0000 057a 0000     n...r...v...z...
  101ab8:	057e 0000 0582 0000 0586 0000 0724 0000     ~...........$...
  101ac8:	0728 0000 0740 0000 0728 0000 0724 0000     (...@...(...$...
  101ad8:	0728 0000 0740 0000 0740 0000 0740 0000     (...@...@...@...
  101ae8:	0724 0000 08b4 0000 08b4 0000 089a 0000     $...............
  101af8:	08b4 0000 08b4 0000 08b4 0000 08b4 0000     ................
  101b08:	08ae 0000 08ae 0000 089a 0000 1388 0000     ................
  101b18:	1388 0000 1374 0000 1388 0000 1388 0000     ....t...........
  101b28:	1388 0000 1374 0000 139c 0000 139c 0000     ....t...........
  101b38:	1354 0000                                   T...

0000000000101b3c <engine_select>:
  101b3c:	4781                	li	a5,0
  101b3e:	4801                	li	a6,0
  101b40:	a015                	j	101b64 <engine_select+0x28>
  101b42:	4685                	li	a3,1
  101b44:	04d58963          	beq	a1,a3,101b96 <engine_select+0x5a>
  101b48:	02079693          	slli	a3,a5,0x20
  101b4c:	9281                	srli	a3,a3,0x20
  101b4e:	00669613          	slli	a2,a3,0x6
  101b52:	00000697          	auipc	a3,0x0
  101b56:	dae68693          	addi	a3,a3,-594 # 101900 <ccc_engine>
  101b5a:	96b2                	add	a3,a3,a2
  101b5c:	4a94                	lw	a3,16(a3)
  101b5e:	02b68f63          	beq	a3,a1,101b9c <engine_select+0x60>
  101b62:	2785                	addiw	a5,a5,1
  101b64:	4705                	li	a4,1
  101b66:	02f76963          	bltu	a4,a5,101b98 <engine_select+0x5c>
  101b6a:	02079713          	slli	a4,a5,0x20
  101b6e:	9301                	srli	a4,a4,0x20
  101b70:	00671693          	slli	a3,a4,0x6
  101b74:	00000717          	auipc	a4,0x0
  101b78:	d8c70713          	addi	a4,a4,-628 # 101900 <ccc_engine>
  101b7c:	9736                	add	a4,a4,a3
  101b7e:	4b54                	lw	a3,20(a4)
  101b80:	8ee9                	and	a3,a3,a0
  101b82:	d2e5                	beqz	a3,101b62 <engine_select+0x26>
  101b84:	6714                	ld	a3,8(a4)
  101b86:	4e90                	lw	a2,24(a3)
  101b88:	4689                	li	a3,2
  101b8a:	fcd61ce3          	bne	a2,a3,101b62 <engine_select+0x26>
  101b8e:	fa081ae3          	bnez	a6,101b42 <engine_select+0x6>
  101b92:	883a                	mv	a6,a4
  101b94:	b77d                	j	101b42 <engine_select+0x6>
  101b96:	883a                	mv	a6,a4
  101b98:	8542                	mv	a0,a6
  101b9a:	8082                	ret
  101b9c:	883a                	mv	a6,a4
  101b9e:	bfed                	j	101b98 <engine_select+0x5c>

0000000000101ba0 <tegra_init_crypto_devices>:
  101ba0:	0007f797          	auipc	a5,0x7f
  101ba4:	72478793          	addi	a5,a5,1828 # 1812c4 <tegra_se_hw_initialized.2591>
  101ba8:	439c                	lw	a5,0(a5)
  101baa:	cb9d                	beqz	a5,101be0 <tegra_init_crypto_devices+0x40>
  101bac:	0ff00513          	li	a0,255
  101bb0:	8082                	ret
  101bb2:	00073823          	sd	zero,16(a4)
  101bb6:	a025                	j	101bde <tegra_init_crypto_devices+0x3e>
  101bb8:	4681                	li	a3,0
  101bba:	a019                	j	101bc0 <tegra_init_crypto_devices+0x20>
  101bbc:	015006b7          	lui	a3,0x1500
  101bc0:	eb14                	sd	a3,16(a4)
  101bc2:	ce91                	beqz	a3,101bde <tegra_init_crypto_devices+0x3e>
  101bc4:	02079713          	slli	a4,a5,0x20
  101bc8:	9301                	srli	a4,a4,0x20
  101bca:	00371693          	slli	a3,a4,0x3
  101bce:	00000717          	auipc	a4,0x0
  101bd2:	d3270713          	addi	a4,a4,-718 # 101900 <ccc_engine>
  101bd6:	9736                	add	a4,a4,a3
  101bd8:	6358                	ld	a4,128(a4)
  101bda:	4689                	li	a3,2
  101bdc:	cf14                	sw	a3,24(a4)
  101bde:	2785                	addiw	a5,a5,1
  101be0:	4709                	li	a4,2
  101be2:	02f76963          	bltu	a4,a5,101c14 <tegra_init_crypto_devices+0x74>
  101be6:	02079713          	slli	a4,a5,0x20
  101bea:	9301                	srli	a4,a4,0x20
  101bec:	00371693          	slli	a3,a4,0x3
  101bf0:	00000717          	auipc	a4,0x0
  101bf4:	d1070713          	addi	a4,a4,-752 # 101900 <ccc_engine>
  101bf8:	9736                	add	a4,a4,a3
  101bfa:	6358                	ld	a4,128(a4)
  101bfc:	4f14                	lw	a3,24(a4)
  101bfe:	dad5                	beqz	a3,101bb2 <tegra_init_crypto_devices+0x12>
  101c00:	4714                	lw	a3,8(a4)
  101c02:	4605                	li	a2,1
  101c04:	fac68ae3          	beq	a3,a2,101bb8 <tegra_init_crypto_devices+0x18>
  101c08:	dad5                	beqz	a3,101bbc <tegra_init_crypto_devices+0x1c>
  101c0a:	4609                	li	a2,2
  101c0c:	00c69763          	bne	a3,a2,101c1a <tegra_init_crypto_devices+0x7a>
  101c10:	4681                	li	a3,0
  101c12:	b77d                	j	101bc0 <tegra_init_crypto_devices+0x20>
  101c14:	0f000513          	li	a0,240
  101c18:	a019                	j	101c1e <tegra_init_crypto_devices+0x7e>
  101c1a:	0f300513          	li	a0,243
  101c1e:	0f000793          	li	a5,240
  101c22:	00f51a63          	bne	a0,a5,101c36 <tegra_init_crypto_devices+0x96>
  101c26:	eac407b7          	lui	a5,0xeac40
  101c2a:	eed7879b          	addiw	a5,a5,-275
  101c2e:	0007f717          	auipc	a4,0x7f
  101c32:	68f72b23          	sw	a5,1686(a4) # 1812c4 <tegra_se_hw_initialized.2591>
  101c36:	8082                	ret

0000000000101c38 <ccc_select_engine>:
  101c38:	c115                	beqz	a0,101c5c <ccc_select_engine+0x24>
  101c3a:	1141                	addi	sp,sp,-16
  101c3c:	e406                	sd	ra,8(sp)
  101c3e:	e022                	sd	s0,0(sp)
  101c40:	87ae                	mv	a5,a1
  101c42:	842a                	mv	s0,a0
  101c44:	85b2                	mv	a1,a2
  101c46:	853e                	mv	a0,a5
  101c48:	ef5ff0ef          	jal	ra,101b3c <engine_select>
  101c4c:	e008                	sd	a0,0(s0)
  101c4e:	c911                	beqz	a0,101c62 <ccc_select_engine+0x2a>
  101c50:	0f000513          	li	a0,240
  101c54:	60a2                	ld	ra,8(sp)
  101c56:	6402                	ld	s0,0(sp)
  101c58:	0141                	addi	sp,sp,16
  101c5a:	8082                	ret
  101c5c:	0f900513          	li	a0,249
  101c60:	8082                	ret
  101c62:	0f300513          	li	a0,243
  101c66:	b7fd                	j	101c54 <ccc_select_engine+0x1c>

0000000000101c68 <se_map_algorithm_to_purpose>:
  101c68:	c5a9                	beqz	a1,101cb2 <se_map_algorithm_to_purpose+0x4a>
  101c6a:	6795                	lui	a5,0x5
  101c6c:	b1d7879b          	addiw	a5,a5,-1251
  101c70:	c19c                	sw	a5,0(a1)
  101c72:	6785                	lui	a5,0x1
  101c74:	0799                	addi	a5,a5,6
  101c76:	00a7fc63          	bleu	a0,a5,101c8e <se_map_algorithm_to_purpose+0x26>
  101c7a:	6785                	lui	a5,0x1
  101c7c:	07a5                	addi	a5,a5,9
  101c7e:	02f50863          	beq	a0,a5,101cae <se_map_algorithm_to_purpose+0x46>
  101c82:	6789                	lui	a5,0x2
  101c84:	0785                	addi	a5,a5,1
  101c86:	02f51c63          	bne	a0,a5,101cbe <se_map_algorithm_to_purpose+0x56>
  101c8a:	47a9                	li	a5,10
  101c8c:	a819                	j	101ca2 <se_map_algorithm_to_purpose+0x3a>
  101c8e:	6785                	lui	a5,0x1
  101c90:	0791                	addi	a5,a5,4
  101c92:	00f57c63          	bleu	a5,a0,101caa <se_map_algorithm_to_purpose+0x42>
  101c96:	77fd                	lui	a5,0xfffff
  101c98:	9d3d                	addw	a0,a0,a5
  101c9a:	4789                	li	a5,2
  101c9c:	00a7ee63          	bltu	a5,a0,101cb8 <se_map_algorithm_to_purpose+0x50>
  101ca0:	4781                	li	a5,0
  101ca2:	c19c                	sw	a5,0(a1)
  101ca4:	0f000513          	li	a0,240
  101ca8:	8082                	ret
  101caa:	4781                	li	a5,0
  101cac:	bfdd                	j	101ca2 <se_map_algorithm_to_purpose+0x3a>
  101cae:	47a9                	li	a5,10
  101cb0:	bfcd                	j	101ca2 <se_map_algorithm_to_purpose+0x3a>
  101cb2:	0f900513          	li	a0,249
  101cb6:	8082                	ret
  101cb8:	0f900513          	li	a0,249
  101cbc:	8082                	ret
  101cbe:	0f900513          	li	a0,249
  101cc2:	8082                	ret

0000000000101cc4 <kslot_field_select>:
  101cc4:	06300793          	li	a5,99
  101cc8:	02f50163          	beq	a0,a5,101cea <kslot_field_select+0x26>
  101ccc:	06400793          	li	a5,100
  101cd0:	02f50163          	beq	a0,a5,101cf2 <kslot_field_select+0x2e>
  101cd4:	05f00793          	li	a5,95
  101cd8:	00f50563          	beq	a0,a5,101ce2 <kslot_field_select+0x1e>
  101cdc:	0f900513          	li	a0,249
  101ce0:	8082                	ret
  101ce2:	c30c                	sw	a1,0(a4)
  101ce4:	0f000513          	li	a0,240
  101ce8:	8082                	ret
  101cea:	c310                	sw	a2,0(a4)
  101cec:	0f000513          	li	a0,240
  101cf0:	8082                	ret
  101cf2:	c314                	sw	a3,0(a4)
  101cf4:	0f000513          	li	a0,240
  101cf8:	8082                	ret

0000000000101cfa <se_create_keyslot_pkt>:
  101cfa:	7179                	addi	sp,sp,-48
  101cfc:	f406                	sd	ra,40(sp)
  101cfe:	f022                	sd	s0,32(sp)
  101d00:	ec26                	sd	s1,24(sp)
  101d02:	e84a                	sd	s2,16(sp)
  101d04:	c602                	sw	zero,12(sp)
  101d06:	00072023          	sw	zero,0(a4)
  101d0a:	0ff00793          	li	a5,255
  101d0e:	06d7ed63          	bltu	a5,a3,101d88 <se_create_keyslot_pkt+0x8e>
  101d12:	47c1                	li	a5,16
  101d14:	06f56763          	bltu	a0,a5,101d82 <se_create_keyslot_pkt+0x88>
  101d18:	893a                	mv	s2,a4
  101d1a:	84b6                	mv	s1,a3
  101d1c:	8832                	mv	a6,a2
  101d1e:	842e                	mv	s0,a1
  101d20:	4745                	li	a4,17
  101d22:	02a77863          	bleu	a0,a4,101d52 <se_create_keyslot_pkt+0x58>
  101d26:	474d                	li	a4,19
  101d28:	00e51d63          	bne	a0,a4,101d42 <se_create_keyslot_pkt+0x48>
  101d2c:	0078                	addi	a4,sp,12
  101d2e:	000306b7          	lui	a3,0x30
  101d32:	00020637          	lui	a2,0x20
  101d36:	65c1                	lui	a1,0x10
  101d38:	8542                	mv	a0,a6
  101d3a:	f8bff0ef          	jal	ra,101cc4 <kslot_field_select>
  101d3e:	2501                	sext.w	a0,a0
  101d40:	a01d                	j	101d66 <se_create_keyslot_pkt+0x6c>
  101d42:	0f900513          	li	a0,249
  101d46:	70a2                	ld	ra,40(sp)
  101d48:	7402                	ld	s0,32(sp)
  101d4a:	64e2                	ld	s1,24(sp)
  101d4c:	6942                	ld	s2,16(sp)
  101d4e:	6145                	addi	sp,sp,48
  101d50:	8082                	ret
  101d52:	0078                	addi	a4,sp,12
  101d54:	000306b7          	lui	a3,0x30
  101d58:	00020637          	lui	a2,0x20
  101d5c:	65c1                	lui	a1,0x10
  101d5e:	8542                	mv	a0,a6
  101d60:	f65ff0ef          	jal	ra,101cc4 <kslot_field_select>
  101d64:	2501                	sext.w	a0,a0
  101d66:	0f000793          	li	a5,240
  101d6a:	fcf51ee3          	bne	a0,a5,101d46 <se_create_keyslot_pkt+0x4c>
  101d6e:	0044159b          	slliw	a1,s0,0x4
  101d72:	00b4e6b3          	or	a3,s1,a1
  101d76:	2681                	sext.w	a3,a3
  101d78:	45b2                	lw	a1,12(sp)
  101d7a:	8ecd                	or	a3,a3,a1
  101d7c:	00d92023          	sw	a3,0(s2)
  101d80:	b7d9                	j	101d46 <se_create_keyslot_pkt+0x4c>
  101d82:	0f900513          	li	a0,249
  101d86:	b7c1                	j	101d46 <se_create_keyslot_pkt+0x4c>
  101d88:	0f900513          	li	a0,249
  101d8c:	bf6d                	j	101d46 <se_create_keyslot_pkt+0x4c>

0000000000101d8e <kac_pack_manifest>:
  101d8e:	cd39                	beqz	a0,101dec <kac_pack_manifest+0x5e>
  101d90:	c1ad                	beqz	a1,101df2 <kac_pack_manifest+0x64>
  101d92:	451c                	lw	a5,8(a0)
  101d94:	0087979b          	slliw	a5,a5,0x8
  101d98:	6705                	lui	a4,0x1
  101d9a:	f0070713          	addi	a4,a4,-256 # f00 <dmem_print_size+0x700>
  101d9e:	8ff9                	and	a5,a5,a4
  101da0:	2781                	sext.w	a5,a5
  101da2:	4158                	lw	a4,4(a0)
  101da4:	0047171b          	slliw	a4,a4,0x4
  101da8:	07077713          	andi	a4,a4,112
  101dac:	8fd9                	or	a5,a5,a4
  101dae:	00c54703          	lbu	a4,12(a0) # 1000c <__fmc_imem_size+0x8a0c>
  101db2:	c311                	beqz	a4,101db6 <kac_pack_manifest+0x28>
  101db4:	4705                	li	a4,1
  101db6:	76fd                	lui	a3,0xfffff
  101db8:	16fd                	addi	a3,a3,-1
  101dba:	8ff5                	and	a5,a5,a3
  101dbc:	00c7171b          	slliw	a4,a4,0xc
  101dc0:	2701                	sext.w	a4,a4
  101dc2:	8fd9                	or	a5,a5,a4
  101dc4:	7751                	lui	a4,0xffff4
  101dc6:	177d                	addi	a4,a4,-1
  101dc8:	8ff9                	and	a5,a5,a4
  101dca:	4918                	lw	a4,16(a0)
  101dcc:	00e7171b          	slliw	a4,a4,0xe
  101dd0:	66c1                	lui	a3,0x10
  101dd2:	16fd                	addi	a3,a3,-1
  101dd4:	8f75                	and	a4,a4,a3
  101dd6:	2701                	sext.w	a4,a4
  101dd8:	8fd9                	or	a5,a5,a4
  101dda:	8ff5                	and	a5,a5,a3
  101ddc:	4958                	lw	a4,20(a0)
  101dde:	0107171b          	slliw	a4,a4,0x10
  101de2:	8fd9                	or	a5,a5,a4
  101de4:	c19c                	sw	a5,0(a1)
  101de6:	0f000513          	li	a0,240
  101dea:	8082                	ret
  101dec:	0f900513          	li	a0,249
  101df0:	8082                	ret
  101df2:	0f900513          	li	a0,249
  101df6:	8082                	ret

0000000000101df8 <kac_pack_ctrl>:
  101df8:	c911                	beqz	a0,101e0c <kac_pack_ctrl+0x14>
  101dfa:	cd81                	beqz	a1,101e12 <kac_pack_ctrl+0x1a>
  101dfc:	00054783          	lbu	a5,0(a0)
  101e00:	c391                	beqz	a5,101e04 <kac_pack_ctrl+0xc>
  101e02:	4785                	li	a5,1
  101e04:	c19c                	sw	a5,0(a1)
  101e06:	0f000513          	li	a0,240
  101e0a:	8082                	ret
  101e0c:	0f900513          	li	a0,249
  101e10:	8082                	ret
  101e12:	0f900513          	li	a0,249
  101e16:	8082                	ret

0000000000101e18 <get_kac_keyslot_op_aes_config_0>:
  101e18:	0005a023          	sw	zero,0(a1) # 10000 <__fmc_imem_size+0x8a00>
  101e1c:	02400793          	li	a5,36
  101e20:	02f50c63          	beq	a0,a5,101e58 <get_kac_keyslot_op_aes_config_0+0x40>
  101e24:	00a7fd63          	bleu	a0,a5,101e3e <get_kac_keyslot_op_aes_config_0+0x26>
  101e28:	02500793          	li	a5,37
  101e2c:	02f50b63          	beq	a0,a5,101e62 <get_kac_keyslot_op_aes_config_0+0x4a>
  101e30:	02600793          	li	a5,38
  101e34:	00f51f63          	bne	a0,a5,101e52 <get_kac_keyslot_op_aes_config_0+0x3a>
  101e38:	0f200513          	li	a0,242
  101e3c:	8082                	ret
  101e3e:	02300793          	li	a5,35
  101e42:	00f51563          	bne	a0,a5,101e4c <get_kac_keyslot_op_aes_config_0+0x34>
  101e46:	0f200513          	li	a0,242
  101e4a:	8082                	ret
  101e4c:	0f900513          	li	a0,249
  101e50:	8082                	ret
  101e52:	0f900513          	li	a0,249
  101e56:	8082                	ret
  101e58:	67b5                	lui	a5,0xd
  101e5a:	c19c                	sw	a5,0(a1)
  101e5c:	0f000513          	li	a0,240
  101e60:	8082                	ret
  101e62:	0f200513          	li	a0,242
  101e66:	8082                	ret

0000000000101e68 <get_kac_keyslot_op_sha_config_0>:
  101e68:	0005a023          	sw	zero,0(a1)
  101e6c:	02400793          	li	a5,36
  101e70:	02f50c63          	beq	a0,a5,101ea8 <get_kac_keyslot_op_sha_config_0+0x40>
  101e74:	00a7fd63          	bleu	a0,a5,101e8e <get_kac_keyslot_op_sha_config_0+0x26>
  101e78:	02500793          	li	a5,37
  101e7c:	02f50b63          	beq	a0,a5,101eb2 <get_kac_keyslot_op_sha_config_0+0x4a>
  101e80:	02600793          	li	a5,38
  101e84:	00f51f63          	bne	a0,a5,101ea2 <get_kac_keyslot_op_sha_config_0+0x3a>
  101e88:	0f200513          	li	a0,242
  101e8c:	8082                	ret
  101e8e:	02300793          	li	a5,35
  101e92:	00f51563          	bne	a0,a5,101e9c <get_kac_keyslot_op_sha_config_0+0x34>
  101e96:	0f200513          	li	a0,242
  101e9a:	8082                	ret
  101e9c:	0f900513          	li	a0,249
  101ea0:	8082                	ret
  101ea2:	0f900513          	li	a0,249
  101ea6:	8082                	ret
  101ea8:	67b5                	lui	a5,0xd
  101eaa:	c19c                	sw	a5,0(a1)
  101eac:	0f000513          	li	a0,240
  101eb0:	8082                	ret
  101eb2:	0f200513          	li	a0,242
  101eb6:	8082                	ret

0000000000101eb8 <get_kac_keyslot_op_config_0>:
  101eb8:	1141                	addi	sp,sp,-16
  101eba:	e406                	sd	ra,8(sp)
  101ebc:	882e                	mv	a6,a1
  101ebe:	00062023          	sw	zero,0(a2) # 20000 <__fmc_imem_size+0x18a00>
  101ec2:	491c                	lw	a5,16(a0)
  101ec4:	ff07869b          	addiw	a3,a5,-16
  101ec8:	4705                	li	a4,1
  101eca:	00d77a63          	bleu	a3,a4,101ede <get_kac_keyslot_op_config_0+0x26>
  101ece:	474d                	li	a4,19
  101ed0:	00e78d63          	beq	a5,a4,101eea <get_kac_keyslot_op_config_0+0x32>
  101ed4:	0f900513          	li	a0,249
  101ed8:	60a2                	ld	ra,8(sp)
  101eda:	0141                	addi	sp,sp,16
  101edc:	8082                	ret
  101ede:	85b2                	mv	a1,a2
  101ee0:	8542                	mv	a0,a6
  101ee2:	f37ff0ef          	jal	ra,101e18 <get_kac_keyslot_op_aes_config_0>
  101ee6:	2501                	sext.w	a0,a0
  101ee8:	bfc5                	j	101ed8 <get_kac_keyslot_op_config_0+0x20>
  101eea:	85b2                	mv	a1,a2
  101eec:	8542                	mv	a0,a6
  101eee:	f7bff0ef          	jal	ra,101e68 <get_kac_keyslot_op_sha_config_0>
  101ef2:	2501                	sext.w	a0,a0
  101ef4:	b7d5                	j	101ed8 <get_kac_keyslot_op_config_0+0x20>

0000000000101ef6 <kac_set_keyslot_manifest_user_sw_check>:
  101ef6:	c519                	beqz	a0,101f04 <kac_set_keyslot_manifest_user_sw_check+0xe>
  101ef8:	0105d59b          	srliw	a1,a1,0x10
  101efc:	e599                	bnez	a1,101f0a <kac_set_keyslot_manifest_user_sw_check+0x14>
  101efe:	0f000513          	li	a0,240
  101f02:	8082                	ret
  101f04:	0f900513          	li	a0,249
  101f08:	8082                	ret
  101f0a:	0f900513          	li	a0,249
  101f0e:	8082                	ret

0000000000101f10 <kac_set_keyslot_fields_check_args>:
  101f10:	c929                	beqz	a0,101f62 <kac_set_keyslot_fields_check_args+0x52>
  101f12:	6815                	lui	a6,0x5
  101f14:	b1d80813          	addi	a6,a6,-1251 # 4b1d <imem_shr_size+0xb1d>
  101f18:	05068863          	beq	a3,a6,101f68 <kac_set_keyslot_fields_check_args+0x58>
  101f1c:	1141                	addi	sp,sp,-16
  101f1e:	e406                	sd	ra,8(sp)
  101f20:	e022                	sd	s0,0(sp)
  101f22:	843e                	mv	s0,a5
  101f24:	85ba                	mv	a1,a4
  101f26:	8532                	mv	a0,a2
  101f28:	fcfff0ef          	jal	ra,101ef6 <kac_set_keyslot_manifest_user_sw_check>
  101f2c:	2501                	sext.w	a0,a0
  101f2e:	0f000793          	li	a5,240
  101f32:	00f51e63          	bne	a0,a5,101f4e <kac_set_keyslot_fields_check_args+0x3e>
  101f36:	02400793          	li	a5,36
  101f3a:	00f40a63          	beq	s0,a5,101f4e <kac_set_keyslot_fields_check_args+0x3e>
  101f3e:	00f46c63          	bltu	s0,a5,101f56 <kac_set_keyslot_fields_check_args+0x46>
  101f42:	02600793          	li	a5,38
  101f46:	0087eb63          	bltu	a5,s0,101f5c <kac_set_keyslot_fields_check_args+0x4c>
  101f4a:	0ff00513          	li	a0,255
  101f4e:	60a2                	ld	ra,8(sp)
  101f50:	6402                	ld	s0,0(sp)
  101f52:	0141                	addi	sp,sp,16
  101f54:	8082                	ret
  101f56:	0f900513          	li	a0,249
  101f5a:	bfd5                	j	101f4e <kac_set_keyslot_fields_check_args+0x3e>
  101f5c:	0f900513          	li	a0,249
  101f60:	b7fd                	j	101f4e <kac_set_keyslot_fields_check_args+0x3e>
  101f62:	0f900513          	li	a0,249
  101f66:	8082                	ret
  101f68:	0f900513          	li	a0,249
  101f6c:	8082                	ret

0000000000101f6e <ks_set_manifest_size>:
  101f6e:	0c000793          	li	a5,192
  101f72:	02f58263          	beq	a1,a5,101f96 <ks_set_manifest_size+0x28>
  101f76:	10000793          	li	a5,256
  101f7a:	02f58363          	beq	a1,a5,101fa0 <ks_set_manifest_size+0x32>
  101f7e:	08000793          	li	a5,128
  101f82:	00f58563          	beq	a1,a5,101f8c <ks_set_manifest_size+0x1e>
  101f86:	0f900513          	li	a0,249
  101f8a:	8082                	ret
  101f8c:	02052423          	sw	zero,40(a0)
  101f90:	0f000513          	li	a0,240
  101f94:	8082                	ret
  101f96:	4785                	li	a5,1
  101f98:	d51c                	sw	a5,40(a0)
  101f9a:	0f000513          	li	a0,240
  101f9e:	8082                	ret
  101fa0:	4789                	li	a5,2
  101fa2:	d51c                	sw	a5,40(a0)
  101fa4:	0f000513          	li	a0,240
  101fa8:	8082                	ret

0000000000101faa <ks_map_manifest_user>:
  101faa:	4789                	li	a5,2
  101fac:	02f50563          	beq	a0,a5,101fd6 <ks_map_manifest_user+0x2c>
  101fb0:	00a7fa63          	bleu	a0,a5,101fc4 <ks_map_manifest_user+0x1a>
  101fb4:	478d                	li	a5,3
  101fb6:	02f50263          	beq	a0,a5,101fda <ks_map_manifest_user+0x30>
  101fba:	4791                	li	a5,4
  101fbc:	00f51b63          	bne	a0,a5,101fd2 <ks_map_manifest_user+0x28>
  101fc0:	4511                	li	a0,4
  101fc2:	8082                	ret
  101fc4:	4785                	li	a5,1
  101fc6:	00f51463          	bne	a0,a5,101fce <ks_map_manifest_user+0x24>
  101fca:	4505                	li	a0,1
  101fcc:	8082                	ret
  101fce:	4501                	li	a0,0
  101fd0:	8082                	ret
  101fd2:	4501                	li	a0,0
  101fd4:	8082                	ret
  101fd6:	4509                	li	a0,2
  101fd8:	8082                	ret
  101fda:	450d                	li	a0,3
  101fdc:	8082                	ret

0000000000101fde <ks_map_manifest_purpose>:
  101fde:	47a9                	li	a5,10
  101fe0:	04a7e163          	bltu	a5,a0,102022 <ks_map_manifest_purpose+0x44>
  101fe4:	1502                	slli	a0,a0,0x20
  101fe6:	9101                	srli	a0,a0,0x20
  101fe8:	050a                	slli	a0,a0,0x2
  101fea:	00000717          	auipc	a4,0x0
  101fee:	aae70713          	addi	a4,a4,-1362 # 101a98 <hw_cdev.2592+0x118>
  101ff2:	953a                	add	a0,a0,a4
  101ff4:	411c                	lw	a5,0(a0)
  101ff6:	97ba                	add	a5,a5,a4
  101ff8:	8782                	jr	a5
  101ffa:	4501                	li	a0,0
  101ffc:	8082                	ret
  101ffe:	4509                	li	a0,2
  102000:	8082                	ret
  102002:	450d                	li	a0,3
  102004:	8082                	ret
  102006:	4511                	li	a0,4
  102008:	8082                	ret
  10200a:	4515                	li	a0,5
  10200c:	8082                	ret
  10200e:	4519                	li	a0,6
  102010:	8082                	ret
  102012:	451d                	li	a0,7
  102014:	8082                	ret
  102016:	4521                	li	a0,8
  102018:	8082                	ret
  10201a:	4525                	li	a0,9
  10201c:	8082                	ret
  10201e:	4529                	li	a0,10
  102020:	8082                	ret
  102022:	6515                	lui	a0,0x5
  102024:	b1d50513          	addi	a0,a0,-1251 # 4b1d <imem_shr_size+0xb1d>
  102028:	8082                	ret
  10202a:	4505                	li	a0,1
  10202c:	8082                	ret

000000000010202e <ks_set_for_algo>:
  10202e:	7139                	addi	sp,sp,-64
  102030:	fc06                	sd	ra,56(sp)
  102032:	f822                	sd	s0,48(sp)
  102034:	f426                	sd	s1,40(sp)
  102036:	f04a                	sd	s2,32(sp)
  102038:	ec4e                	sd	s3,24(sp)
  10203a:	e852                	sd	s4,16(sp)
  10203c:	e456                	sd	s5,8(sp)
  10203e:	84aa                	mv	s1,a0
  102040:	8532                	mv	a0,a2
  102042:	8936                	mv	s2,a3
  102044:	8aba                	mv	s5,a4
  102046:	8a3e                	mv	s4,a5
  102048:	89c2                	mv	s3,a6
  10204a:	8446                	mv	s0,a7
  10204c:	87ae                	mv	a5,a1
  10204e:	8746                	mv	a4,a7
  102050:	86c2                	mv	a3,a6
  102052:	8652                	mv	a2,s4
  102054:	85ca                	mv	a1,s2
  102056:	ebbff0ef          	jal	ra,101f10 <kac_set_keyslot_fields_check_args>
  10205a:	2501                	sext.w	a0,a0
  10205c:	0f000793          	li	a5,240
  102060:	00f50b63          	beq	a0,a5,102076 <ks_set_for_algo+0x48>
  102064:	70e2                	ld	ra,56(sp)
  102066:	7442                	ld	s0,48(sp)
  102068:	74a2                	ld	s1,40(sp)
  10206a:	7902                	ld	s2,32(sp)
  10206c:	69e2                	ld	s3,24(sp)
  10206e:	6a42                	ld	s4,16(sp)
  102070:	6aa2                	ld	s5,8(sp)
  102072:	6121                	addi	sp,sp,64
  102074:	8082                	ret
  102076:	85d6                	mv	a1,s5
  102078:	8526                	mv	a0,s1
  10207a:	ef5ff0ef          	jal	ra,101f6e <ks_set_manifest_size>
  10207e:	2501                	sext.w	a0,a0
  102080:	0f000793          	li	a5,240
  102084:	fef510e3          	bne	a0,a5,102064 <ks_set_for_algo+0x36>
  102088:	0154a423          	sw	s5,8(s1)
  10208c:	0144ae23          	sw	s4,28(s1)
  102090:	0334a023          	sw	s3,32(s1)
  102094:	4786                	lw	a5,64(sp)
  102096:	8b85                	andi	a5,a5,1
  102098:	02f48223          	sb	a5,36(s1)
  10209c:	1442                	slli	s0,s0,0x30
  10209e:	9041                	srli	s0,s0,0x30
  1020a0:	d4c0                	sw	s0,44(s1)
  1020a2:	02048823          	sb	zero,48(s1)
  1020a6:	0124b023          	sd	s2,0(s1)
  1020aa:	bf6d                	j	102064 <ks_set_for_algo+0x36>

00000000001020ac <engine_aes_set_op_mode_encrypt_crypto_config>:
  1020ac:	10050463          	beqz	a0,1021b4 <engine_aes_set_op_mode_encrypt_crypto_config+0x108>
  1020b0:	10060563          	beqz	a2,1021ba <engine_aes_set_op_mode_encrypt_crypto_config+0x10e>
  1020b4:	6785                	lui	a5,0x1
  1020b6:	0789                	addi	a5,a5,2
  1020b8:	04f58063          	beq	a1,a5,1020f8 <engine_aes_set_op_mode_encrypt_crypto_config+0x4c>
  1020bc:	4785                	li	a5,1
  1020be:	6705                	lui	a4,0x1
  1020c0:	0711                	addi	a4,a4,4
  1020c2:	0ae58e63          	beq	a1,a4,10217e <engine_aes_set_op_mode_encrypt_crypto_config+0xd2>
  1020c6:	6705                	lui	a4,0x1
  1020c8:	0711                	addi	a4,a4,4
  1020ca:	02b77e63          	bleu	a1,a4,102106 <engine_aes_set_op_mode_encrypt_crypto_config+0x5a>
  1020ce:	6785                	lui	a5,0x1
  1020d0:	0799                	addi	a5,a5,6
  1020d2:	0cf58163          	beq	a1,a5,102194 <engine_aes_set_op_mode_encrypt_crypto_config+0xe8>
  1020d6:	6785                	lui	a5,0x1
  1020d8:	0799                	addi	a5,a5,6
  1020da:	0cf5e263          	bltu	a1,a5,10219e <engine_aes_set_op_mode_encrypt_crypto_config+0xf2>
  1020de:	6785                	lui	a5,0x1
  1020e0:	07a5                	addi	a5,a5,9
  1020e2:	0cf58463          	beq	a1,a5,1021aa <engine_aes_set_op_mode_encrypt_crypto_config+0xfe>
  1020e6:	6789                	lui	a5,0x2
  1020e8:	08f59663          	bne	a1,a5,102174 <engine_aes_set_op_mode_encrypt_crypto_config+0xc8>
  1020ec:	4705                	li	a4,1
  1020ee:	04500793          	li	a5,69
  1020f2:	0f000513          	li	a0,240
  1020f6:	a0b9                	j	102144 <engine_aes_set_op_mode_encrypt_crypto_config+0x98>
  1020f8:	07054783          	lbu	a5,112(a0)
  1020fc:	c399                	beqz	a5,102102 <engine_aes_set_op_mode_encrypt_crypto_config+0x56>
  1020fe:	2781                	sext.w	a5,a5
  102100:	bf7d                	j	1020be <engine_aes_set_op_mode_encrypt_crypto_config+0x12>
  102102:	4785                	li	a5,1
  102104:	bf6d                	j	1020be <engine_aes_set_op_mode_encrypt_crypto_config+0x12>
  102106:	6705                	lui	a4,0x1
  102108:	0705                	addi	a4,a4,1
  10210a:	06e58f63          	beq	a1,a4,102188 <engine_aes_set_op_mode_encrypt_crypto_config+0xdc>
  10210e:	6705                	lui	a4,0x1
  102110:	0705                	addi	a4,a4,1
  102112:	00b77d63          	bleu	a1,a4,10212c <engine_aes_set_op_mode_encrypt_crypto_config+0x80>
  102116:	6705                	lui	a4,0x1
  102118:	0709                	addi	a4,a4,2
  10211a:	02e59e63          	bne	a1,a4,102156 <engine_aes_set_op_mode_encrypt_crypto_config+0xaa>
  10211e:	07ae                	slli	a5,a5,0xb
  102120:	01e7e793          	ori	a5,a5,30
  102124:	4705                	li	a4,1
  102126:	0f000513          	li	a0,240
  10212a:	a829                	j	102144 <engine_aes_set_op_mode_encrypt_crypto_config+0x98>
  10212c:	6785                	lui	a5,0x1
  10212e:	00f59763          	bne	a1,a5,10213c <engine_aes_set_op_mode_encrypt_crypto_config+0x90>
  102132:	4705                	li	a4,1
  102134:	4781                	li	a5,0
  102136:	0f000513          	li	a0,240
  10213a:	a029                	j	102144 <engine_aes_set_op_mode_encrypt_crypto_config+0x98>
  10213c:	4705                	li	a4,1
  10213e:	4781                	li	a5,0
  102140:	0f900513          	li	a0,249
  102144:	0f000693          	li	a3,240
  102148:	06d51b63          	bne	a0,a3,1021be <engine_aes_set_op_mode_encrypt_crypto_config+0x112>
  10214c:	c319                	beqz	a4,102152 <engine_aes_set_op_mode_encrypt_crypto_config+0xa6>
  10214e:	2007e793          	ori	a5,a5,512
  102152:	c21c                	sw	a5,0(a2)
  102154:	8082                	ret
  102156:	6785                	lui	a5,0x1
  102158:	078d                	addi	a5,a5,3
  10215a:	00f59863          	bne	a1,a5,10216a <engine_aes_set_op_mode_encrypt_crypto_config+0xbe>
  10215e:	4705                	li	a4,1
  102160:	04400793          	li	a5,68
  102164:	0f000513          	li	a0,240
  102168:	bff1                	j	102144 <engine_aes_set_op_mode_encrypt_crypto_config+0x98>
  10216a:	4705                	li	a4,1
  10216c:	4781                	li	a5,0
  10216e:	0f900513          	li	a0,249
  102172:	bfc9                	j	102144 <engine_aes_set_op_mode_encrypt_crypto_config+0x98>
  102174:	4705                	li	a4,1
  102176:	4781                	li	a5,0
  102178:	0f900513          	li	a0,249
  10217c:	b7e1                	j	102144 <engine_aes_set_op_mode_encrypt_crypto_config+0x98>
  10217e:	4705                	li	a4,1
  102180:	4781                	li	a5,0
  102182:	0f000513          	li	a0,240
  102186:	bf7d                	j	102144 <engine_aes_set_op_mode_encrypt_crypto_config+0x98>
  102188:	4705                	li	a4,1
  10218a:	04400793          	li	a5,68
  10218e:	0f000513          	li	a0,240
  102192:	bf4d                	j	102144 <engine_aes_set_op_mode_encrypt_crypto_config+0x98>
  102194:	4705                	li	a4,1
  102196:	47d9                	li	a5,22
  102198:	0f000513          	li	a0,240
  10219c:	b765                	j	102144 <engine_aes_set_op_mode_encrypt_crypto_config+0x98>
  10219e:	4705                	li	a4,1
  1021a0:	04400793          	li	a5,68
  1021a4:	0f000513          	li	a0,240
  1021a8:	bf71                	j	102144 <engine_aes_set_op_mode_encrypt_crypto_config+0x98>
  1021aa:	4701                	li	a4,0
  1021ac:	4781                	li	a5,0
  1021ae:	0f000513          	li	a0,240
  1021b2:	bf49                	j	102144 <engine_aes_set_op_mode_encrypt_crypto_config+0x98>
  1021b4:	0f900513          	li	a0,249
  1021b8:	8082                	ret
  1021ba:	0f900513          	li	a0,249
  1021be:	8082                	ret

00000000001021c0 <engine_aes_set_op_mode_decrypt_crypto_config>:
  1021c0:	cd05                	beqz	a0,1021f8 <engine_aes_set_op_mode_decrypt_crypto_config+0x38>
  1021c2:	ce15                	beqz	a2,1021fe <engine_aes_set_op_mode_decrypt_crypto_config+0x3e>
  1021c4:	77fd                	lui	a5,0xfffff
  1021c6:	9dbd                	addw	a1,a1,a5
  1021c8:	0005871b          	sext.w	a4,a1
  1021cc:	47a5                	li	a5,9
  1021ce:	02e7eb63          	bltu	a5,a4,102204 <engine_aes_set_op_mode_decrypt_crypto_config+0x44>
  1021d2:	1582                	slli	a1,a1,0x20
  1021d4:	9181                	srli	a1,a1,0x20
  1021d6:	058a                	slli	a1,a1,0x2
  1021d8:	00000717          	auipc	a4,0x0
  1021dc:	8ec70713          	addi	a4,a4,-1812 # 101ac4 <hw_cdev.2592+0x144>
  1021e0:	95ba                	add	a1,a1,a4
  1021e2:	419c                	lw	a5,0(a1)
  1021e4:	97ba                	add	a5,a5,a4
  1021e6:	8782                	jr	a5
  1021e8:	4781                	li	a5,0
  1021ea:	a019                	j	1021f0 <engine_aes_set_op_mode_decrypt_crypto_config+0x30>
  1021ec:	06600793          	li	a5,102
  1021f0:	c21c                	sw	a5,0(a2)
  1021f2:	0f000513          	li	a0,240
  1021f6:	8082                	ret
  1021f8:	0f900513          	li	a0,249
  1021fc:	8082                	ret
  1021fe:	0f900513          	li	a0,249
  102202:	8082                	ret
  102204:	0ff00513          	li	a0,255
  102208:	8082                	ret

000000000010220a <engine_aes_set_op_mode_check_args>:
  10220a:	cd29                	beqz	a0,102264 <engine_aes_set_op_mode_check_args+0x5a>
  10220c:	ce39                	beqz	a2,10226a <engine_aes_set_op_mode_check_args+0x60>
  10220e:	6789                	lui	a5,0x2
  102210:	02f58a63          	beq	a1,a5,102244 <engine_aes_set_op_mode_check_args+0x3a>
  102214:	6791                	lui	a5,0x4
  102216:	0785                	addi	a5,a5,1
  102218:	02f58e63          	beq	a1,a5,102254 <engine_aes_set_op_mode_check_args+0x4a>
  10221c:	6791                	lui	a5,0x4
  10221e:	0789                	addi	a5,a5,2
  102220:	02f58c63          	beq	a1,a5,102258 <engine_aes_set_op_mode_check_args+0x4e>
  102224:	6791                	lui	a5,0x4
  102226:	078d                	addi	a5,a5,3
  102228:	02f58a63          	beq	a1,a5,10225c <engine_aes_set_op_mode_check_args+0x52>
  10222c:	6791                	lui	a5,0x4
  10222e:	0791                	addi	a5,a5,4
  102230:	02f58863          	beq	a1,a5,102260 <engine_aes_set_op_mode_check_args+0x56>
  102234:	6791                	lui	a5,0x4
  102236:	0795                	addi	a5,a5,5
  102238:	00f58463          	beq	a1,a5,102240 <engine_aes_set_op_mode_check_args+0x36>
  10223c:	4781                	li	a5,0
  10223e:	a021                	j	102246 <engine_aes_set_op_mode_check_args+0x3c>
  102240:	4785                	li	a5,1
  102242:	a011                	j	102246 <engine_aes_set_op_mode_check_args+0x3c>
  102244:	4785                	li	a5,1
  102246:	c78d                	beqz	a5,102270 <engine_aes_set_op_mode_check_args+0x66>
  102248:	4785                	li	a5,1
  10224a:	02f60663          	beq	a2,a5,102276 <engine_aes_set_op_mode_check_args+0x6c>
  10224e:	0f900513          	li	a0,249
  102252:	8082                	ret
  102254:	4785                	li	a5,1
  102256:	bfc5                	j	102246 <engine_aes_set_op_mode_check_args+0x3c>
  102258:	4785                	li	a5,1
  10225a:	b7f5                	j	102246 <engine_aes_set_op_mode_check_args+0x3c>
  10225c:	4785                	li	a5,1
  10225e:	b7e5                	j	102246 <engine_aes_set_op_mode_check_args+0x3c>
  102260:	4785                	li	a5,1
  102262:	b7d5                	j	102246 <engine_aes_set_op_mode_check_args+0x3c>
  102264:	0f900513          	li	a0,249
  102268:	8082                	ret
  10226a:	0f000513          	li	a0,240
  10226e:	8082                	ret
  102270:	0f900513          	li	a0,249
  102274:	8082                	ret
  102276:	0f000513          	li	a0,240
  10227a:	8082                	ret

000000000010227c <aes_set_iv_select_field>:
  10227c:	c601                	beqz	a2,102284 <aes_set_iv_select_field+0x8>
  10227e:	e7f5f513          	andi	a0,a1,-385
  102282:	8082                	ret
  102284:	6785                	lui	a5,0x1
  102286:	0795                	addi	a5,a5,5
  102288:	02f50263          	beq	a0,a5,1022ac <aes_set_iv_select_field+0x30>
  10228c:	6785                	lui	a5,0x1
  10228e:	0785                	addi	a5,a5,1
  102290:	02f50663          	beq	a0,a5,1022bc <aes_set_iv_select_field+0x40>
  102294:	6785                	lui	a5,0x1
  102296:	078d                	addi	a5,a5,3
  102298:	02f50463          	beq	a0,a5,1022c0 <aes_set_iv_select_field+0x44>
  10229c:	6785                	lui	a5,0x1
  10229e:	0799                	addi	a5,a5,6
  1022a0:	00f50463          	beq	a0,a5,1022a8 <aes_set_iv_select_field+0x2c>
  1022a4:	4781                	li	a5,0
  1022a6:	a021                	j	1022ae <aes_set_iv_select_field+0x32>
  1022a8:	4785                	li	a5,1
  1022aa:	a011                	j	1022ae <aes_set_iv_select_field+0x32>
  1022ac:	4785                	li	a5,1
  1022ae:	c385                	beqz	a5,1022ce <aes_set_iv_select_field+0x52>
  1022b0:	ca91                	beqz	a3,1022c4 <aes_set_iv_select_field+0x48>
  1022b2:	e7f5f593          	andi	a1,a1,-385
  1022b6:	1005e513          	ori	a0,a1,256
  1022ba:	8082                	ret
  1022bc:	4785                	li	a5,1
  1022be:	bfc5                	j	1022ae <aes_set_iv_select_field+0x32>
  1022c0:	4785                	li	a5,1
  1022c2:	b7f5                	j	1022ae <aes_set_iv_select_field+0x32>
  1022c4:	e7f5f593          	andi	a1,a1,-385
  1022c8:	0805e513          	ori	a0,a1,128
  1022cc:	8082                	ret
  1022ce:	6785                	lui	a5,0x1
  1022d0:	07a1                	addi	a5,a5,8
  1022d2:	00f50e63          	beq	a0,a5,1022ee <aes_set_iv_select_field+0x72>
  1022d6:	6785                	lui	a5,0x1
  1022d8:	0789                	addi	a5,a5,2
  1022da:	02f50163          	beq	a0,a5,1022fc <aes_set_iv_select_field+0x80>
  1022de:	6785                	lui	a5,0x1
  1022e0:	07a5                	addi	a5,a5,9
  1022e2:	00f50463          	beq	a0,a5,1022ea <aes_set_iv_select_field+0x6e>
  1022e6:	4781                	li	a5,0
  1022e8:	a021                	j	1022f0 <aes_set_iv_select_field+0x74>
  1022ea:	4785                	li	a5,1
  1022ec:	a011                	j	1022f0 <aes_set_iv_select_field+0x74>
  1022ee:	4785                	li	a5,1
  1022f0:	eb81                	bnez	a5,102300 <aes_set_iv_select_field+0x84>
  1022f2:	6789                	lui	a5,0x2
  1022f4:	00f50663          	beq	a0,a5,102300 <aes_set_iv_select_field+0x84>
  1022f8:	852e                	mv	a0,a1
  1022fa:	8082                	ret
  1022fc:	4785                	li	a5,1
  1022fe:	bfcd                	j	1022f0 <aes_set_iv_select_field+0x74>
  102300:	e7f5f593          	andi	a1,a1,-385
  102304:	1005e513          	ori	a0,a1,256
  102308:	8082                	ret

000000000010230a <aes_adjust_blocks>:
  10230a:	421c                	lw	a5,0(a2)
  10230c:	4298                	lw	a4,0(a3)
  10230e:	00e79c63          	bne	a5,a4,102326 <aes_adjust_blocks+0x1c>
  102312:	c599                	beqz	a1,102320 <aes_adjust_blocks+0x16>
  102314:	2785                	addiw	a5,a5,1
  102316:	c21c                	sw	a5,0(a2)
  102318:	c298                	sw	a4,0(a3)
  10231a:	0f000513          	li	a0,240
  10231e:	8082                	ret
  102320:	c791                	beqz	a5,10232c <aes_adjust_blocks+0x22>
  102322:	377d                	addiw	a4,a4,-1
  102324:	bfcd                	j	102316 <aes_adjust_blocks+0xc>
  102326:	0ff00513          	li	a0,255
  10232a:	8082                	ret
  10232c:	0fb00513          	li	a0,251
  102330:	8082                	ret

0000000000102332 <aes_residual_bit_count>:
  102332:	419c                	lw	a5,0(a1)
  102334:	c119                	beqz	a0,10233a <aes_residual_bit_count+0x8>
  102336:	0035179b          	slliw	a5,a0,0x3
  10233a:	c19c                	sw	a5,0(a1)
  10233c:	8082                	ret

000000000010233e <aes_output_paddr>:
  10233e:	6918                	ld	a4,16(a0)
  102340:	6d1c                	ld	a5,24(a0)
  102342:	00f70363          	beq	a4,a5,102348 <aes_output_paddr+0xa>
  102346:	85be                	mv	a1,a5
  102348:	5158                	lw	a4,36(a0)
  10234a:	511c                	lw	a5,32(a0)
  10234c:	00f76663          	bltu	a4,a5,102358 <aes_output_paddr+0x1a>
  102350:	e20c                	sd	a1,0(a2)
  102352:	0f000513          	li	a0,240
  102356:	8082                	ret
  102358:	0fb00513          	li	a0,251
  10235c:	8082                	ret

000000000010235e <aes_enc_dec_algo_setup>:
  10235e:	6514                	ld	a3,8(a0)
  102360:	4a98                	lw	a4,16(a3)
  102362:	77fd                	lui	a5,0xfffff
  102364:	9fb9                	addw	a5,a5,a4
  102366:	0007861b          	sext.w	a2,a5
  10236a:	4725                	li	a4,9
  10236c:	02c76763          	bltu	a4,a2,10239a <aes_enc_dec_algo_setup+0x3c>
  102370:	1782                	slli	a5,a5,0x20
  102372:	9381                	srli	a5,a5,0x20
  102374:	078a                	slli	a5,a5,0x2
  102376:	fffff717          	auipc	a4,0xfffff
  10237a:	77670713          	addi	a4,a4,1910 # 101aec <hw_cdev.2592+0x16c>
  10237e:	97ba                	add	a5,a5,a4
  102380:	439c                	lw	a5,0(a5)
  102382:	97ba                	add	a5,a5,a4
  102384:	8782                	jr	a5
  102386:	4785                	li	a5,1
  102388:	02f509a3          	sb	a5,51(a0)
  10238c:	4adc                	lw	a5,20(a3)
  10238e:	6705                	lui	a4,0x1
  102390:	8ff9                	and	a5,a5,a4
  102392:	c781                	beqz	a5,10239a <aes_enc_dec_algo_setup+0x3c>
  102394:	0f000513          	li	a0,240
  102398:	8082                	ret
  10239a:	0f200513          	li	a0,242
  10239e:	8082                	ret
  1023a0:	0f000513          	li	a0,240
  1023a4:	8082                	ret

00000000001023a6 <engine_aes_process_arg_check_rest>:
  1023a6:	6514                	ld	a3,8(a0)
  1023a8:	4a98                	lw	a4,16(a3)
  1023aa:	6785                	lui	a5,0x1
  1023ac:	079d                	addi	a5,a5,7
  1023ae:	00f70f63          	beq	a4,a5,1023cc <engine_aes_process_arg_check_rest+0x26>
  1023b2:	6785                	lui	a5,0x1
  1023b4:	07a5                	addi	a5,a5,9
  1023b6:	02f70b63          	beq	a4,a5,1023ec <engine_aes_process_arg_check_rest+0x46>
  1023ba:	6789                	lui	a5,0x2
  1023bc:	0785                	addi	a5,a5,1
  1023be:	02f70563          	beq	a4,a5,1023e8 <engine_aes_process_arg_check_rest+0x42>
  1023c2:	4781                	li	a5,0
  1023c4:	e781                	bnez	a5,1023cc <engine_aes_process_arg_check_rest+0x26>
  1023c6:	511c                	lw	a5,32(a0)
  1023c8:	8bbd                	andi	a5,a5,15
  1023ca:	e39d                	bnez	a5,1023f0 <engine_aes_process_arg_check_rest+0x4a>
  1023cc:	4adc                	lw	a5,20(a3)
  1023ce:	00100737          	lui	a4,0x100
  1023d2:	8ff9                	and	a5,a5,a4
  1023d4:	e38d                	bnez	a5,1023f6 <engine_aes_process_arg_check_rest+0x50>
  1023d6:	6d1c                	ld	a5,24(a0)
  1023d8:	c395                	beqz	a5,1023fc <engine_aes_process_arg_check_rest+0x56>
  1023da:	5158                	lw	a4,36(a0)
  1023dc:	511c                	lw	a5,32(a0)
  1023de:	02f76263          	bltu	a4,a5,102402 <engine_aes_process_arg_check_rest+0x5c>
  1023e2:	0f000513          	li	a0,240
  1023e6:	8082                	ret
  1023e8:	4785                	li	a5,1
  1023ea:	bfe9                	j	1023c4 <engine_aes_process_arg_check_rest+0x1e>
  1023ec:	4785                	li	a5,1
  1023ee:	bfd9                	j	1023c4 <engine_aes_process_arg_check_rest+0x1e>
  1023f0:	0f900513          	li	a0,249
  1023f4:	8082                	ret
  1023f6:	0f000513          	li	a0,240
  1023fa:	8082                	ret
  1023fc:	0f900513          	li	a0,249
  102400:	8082                	ret
  102402:	0f900513          	li	a0,249
  102406:	8082                	ret

0000000000102408 <engine_aes_process_arg_check>:
  102408:	651c                	ld	a5,8(a0)
  10240a:	0197c703          	lbu	a4,25(a5) # 2019 <imem_wl_size+0x19>
  10240e:	e721                	bnez	a4,102456 <engine_aes_process_arg_check+0x4e>
  102410:	5b98                	lw	a4,48(a5)
  102412:	08000693          	li	a3,128
  102416:	00d70e63          	beq	a4,a3,102432 <engine_aes_process_arg_check+0x2a>
  10241a:	0c000693          	li	a3,192
  10241e:	02d70a63          	beq	a4,a3,102452 <engine_aes_process_arg_check+0x4a>
  102422:	10000693          	li	a3,256
  102426:	00d70463          	beq	a4,a3,10242e <engine_aes_process_arg_check+0x26>
  10242a:	4701                	li	a4,0
  10242c:	a021                	j	102434 <engine_aes_process_arg_check+0x2c>
  10242e:	4705                	li	a4,1
  102430:	a011                	j	102434 <engine_aes_process_arg_check+0x2c>
  102432:	4705                	li	a4,1
  102434:	c705                	beqz	a4,10245c <engine_aes_process_arg_check+0x54>
  102436:	5bd8                	lw	a4,52(a5)
  102438:	47bd                	li	a5,15
  10243a:	02e7e463          	bltu	a5,a4,102462 <engine_aes_process_arg_check+0x5a>
  10243e:	691c                	ld	a5,16(a0)
  102440:	c785                	beqz	a5,102468 <engine_aes_process_arg_check+0x60>
  102442:	1141                	addi	sp,sp,-16
  102444:	e406                	sd	ra,8(sp)
  102446:	f61ff0ef          	jal	ra,1023a6 <engine_aes_process_arg_check_rest>
  10244a:	2501                	sext.w	a0,a0
  10244c:	60a2                	ld	ra,8(sp)
  10244e:	0141                	addi	sp,sp,16
  102450:	8082                	ret
  102452:	4705                	li	a4,1
  102454:	b7c5                	j	102434 <engine_aes_process_arg_check+0x2c>
  102456:	0f900513          	li	a0,249
  10245a:	8082                	ret
  10245c:	0f900513          	li	a0,249
  102460:	8082                	ret
  102462:	0f900513          	li	a0,249
  102466:	8082                	ret
  102468:	0f900513          	li	a0,249
  10246c:	8082                	ret

000000000010246e <aes_ofb_extract_iv>:
  10246e:	02052803          	lw	a6,32(a0)
  102472:	47bd                	li	a5,15
  102474:	0507f063          	bleu	a6,a5,1024b4 <aes_ofb_extract_iv+0x46>
  102478:	01053883          	ld	a7,16(a0)
  10247c:	3841                	addiw	a6,a6,-16
  10247e:	1802                	slli	a6,a6,0x20
  102480:	02085813          	srli	a6,a6,0x20
  102484:	4781                	li	a5,0
  102486:	473d                	li	a4,15
  102488:	02f76363          	bltu	a4,a5,1024ae <aes_ofb_extract_iv+0x40>
  10248c:	02079513          	slli	a0,a5,0x20
  102490:	9101                	srli	a0,a0,0x20
  102492:	00a58633          	add	a2,a1,a0
  102496:	00064703          	lbu	a4,0(a2)
  10249a:	010886b3          	add	a3,a7,a6
  10249e:	96aa                	add	a3,a3,a0
  1024a0:	0006c683          	lbu	a3,0(a3) # 10000 <__fmc_imem_size+0x8a00>
  1024a4:	8f35                	xor	a4,a4,a3
  1024a6:	00e60023          	sb	a4,0(a2)
  1024aa:	2785                	addiw	a5,a5,1
  1024ac:	bfe9                	j	102486 <aes_ofb_extract_iv+0x18>
  1024ae:	0f000513          	li	a0,240
  1024b2:	8082                	ret
  1024b4:	0f900513          	li	a0,249
  1024b8:	8082                	ret

00000000001024ba <aes_write_iv_locked>:
  1024ba:	1141                	addi	sp,sp,-16
  1024bc:	e406                	sd	ra,8(sp)
  1024be:	0b0020ef          	jal	ra,10456e <se_write_linear_counter>
  1024c2:	2501                	sext.w	a0,a0
  1024c4:	60a2                	ld	ra,8(sp)
  1024c6:	0141                	addi	sp,sp,16
  1024c8:	8082                	ret

00000000001024ca <engine_aes_write_iv>:
  1024ca:	1141                	addi	sp,sp,-16
  1024cc:	e406                	sd	ra,8(sp)
  1024ce:	06050593          	addi	a1,a0,96
  1024d2:	6108                	ld	a0,0(a0)
  1024d4:	fe7ff0ef          	jal	ra,1024ba <aes_write_iv_locked>
  1024d8:	2501                	sext.w	a0,a0
  1024da:	60a2                	ld	ra,8(sp)
  1024dc:	0141                	addi	sp,sp,16
  1024de:	8082                	ret

00000000001024e0 <engine_aes_clear_iv>:
  1024e0:	1141                	addi	sp,sp,-16
  1024e2:	e406                	sd	ra,8(sp)
  1024e4:	4581                	li	a1,0
  1024e6:	fd5ff0ef          	jal	ra,1024ba <aes_write_iv_locked>
  1024ea:	2501                	sext.w	a0,a0
  1024ec:	60a2                	ld	ra,8(sp)
  1024ee:	0141                	addi	sp,sp,16
  1024f0:	8082                	ret

00000000001024f2 <aes_encrypt_decrypt_locked_async_finish>:
  1024f2:	1101                	addi	sp,sp,-32
  1024f4:	ec06                	sd	ra,24(sp)
  1024f6:	e822                	sd	s0,16(sp)
  1024f8:	e426                	sd	s1,8(sp)
  1024fa:	84aa                	mv	s1,a0
  1024fc:	651c                	ld	a5,8(a0)
  1024fe:	6388                	ld	a0,0(a5)
  102500:	70f010ef          	jal	ra,10440e <se_wait_engine_free>
  102504:	0005041b          	sext.w	s0,a0
  102508:	0f000793          	li	a5,240
  10250c:	00f40863          	beq	s0,a5,10251c <aes_encrypt_decrypt_locked_async_finish+0x2a>
  102510:	8522                	mv	a0,s0
  102512:	60e2                	ld	ra,24(sp)
  102514:	6442                	ld	s0,16(sp)
  102516:	64a2                	ld	s1,8(sp)
  102518:	6105                	addi	sp,sp,32
  10251a:	8082                	ret
  10251c:	649c                	ld	a5,8(s1)
  10251e:	fffff597          	auipc	a1,0xfffff
  102522:	4ba58593          	addi	a1,a1,1210 # 1019d8 <hw_cdev.2592+0x58>
  102526:	6388                	ld	a0,0(a5)
  102528:	73b010ef          	jal	ra,104462 <se_engine_get_err_status>
  10252c:	2501                	sext.w	a0,a0
  10252e:	0f000793          	li	a5,240
  102532:	00f50363          	beq	a0,a5,102538 <aes_encrypt_decrypt_locked_async_finish+0x46>
  102536:	842a                	mv	s0,a0
  102538:	0f000793          	li	a5,240
  10253c:	fcf41ae3          	bne	s0,a5,102510 <aes_encrypt_decrypt_locked_async_finish+0x1e>
  102540:	0334c783          	lbu	a5,51(s1)
  102544:	d7f1                	beqz	a5,102510 <aes_encrypt_decrypt_locked_async_finish+0x1e>
  102546:	548c                	lw	a1,40(s1)
  102548:	6488                	ld	a0,8(s1)
  10254a:	77f010ef          	jal	ra,1044c8 <se_update_linear_counter>
  10254e:	0005041b          	sext.w	s0,a0
  102552:	bf7d                	j	102510 <aes_encrypt_decrypt_locked_async_finish+0x1e>

0000000000102554 <aes_get_updated_iv_from_memory>:
  102554:	651c                	ld	a5,8(a0)
  102556:	0187c783          	lbu	a5,24(a5)
  10255a:	c3b9                	beqz	a5,1025a0 <aes_get_updated_iv_from_memory+0x4c>
  10255c:	5158                	lw	a4,36(a0)
  10255e:	00f77793          	andi	a5,a4,15
  102562:	e3a5                	bnez	a5,1025c2 <aes_get_updated_iv_from_memory+0x6e>
  102564:	c335                	beqz	a4,1025c8 <aes_get_updated_iv_from_memory+0x74>
  102566:	6d1c                	ld	a5,24(a0)
  102568:	3741                	addiw	a4,a4,-16
  10256a:	1702                	slli	a4,a4,0x20
  10256c:	9301                	srli	a4,a4,0x20
  10256e:	97ba                	add	a5,a5,a4
  102570:	1101                	addi	sp,sp,-32
  102572:	ec06                	sd	ra,24(sp)
  102574:	e822                	sd	s0,16(sp)
  102576:	e426                	sd	s1,8(sp)
  102578:	84ae                	mv	s1,a1
  10257a:	842a                	mv	s0,a0
  10257c:	4641                	li	a2,16
  10257e:	85be                	mv	a1,a5
  102580:	8526                	mv	a0,s1
  102582:	7a6010ef          	jal	ra,103d28 <se_util_mem_move>
  102586:	641c                	ld	a5,8(s0)
  102588:	4b98                	lw	a4,16(a5)
  10258a:	6785                	lui	a5,0x1
  10258c:	0799                	addi	a5,a5,6
  10258e:	02f70463          	beq	a4,a5,1025b6 <aes_get_updated_iv_from_memory+0x62>
  102592:	0f000513          	li	a0,240
  102596:	60e2                	ld	ra,24(sp)
  102598:	6442                	ld	s0,16(sp)
  10259a:	64a2                	ld	s1,8(sp)
  10259c:	6105                	addi	sp,sp,32
  10259e:	8082                	ret
  1025a0:	511c                	lw	a5,32(a0)
  1025a2:	00f7f713          	andi	a4,a5,15
  1025a6:	e705                	bnez	a4,1025ce <aes_get_updated_iv_from_memory+0x7a>
  1025a8:	c795                	beqz	a5,1025d4 <aes_get_updated_iv_from_memory+0x80>
  1025aa:	6918                	ld	a4,16(a0)
  1025ac:	37c1                	addiw	a5,a5,-16
  1025ae:	1782                	slli	a5,a5,0x20
  1025b0:	9381                	srli	a5,a5,0x20
  1025b2:	97ba                	add	a5,a5,a4
  1025b4:	bf75                	j	102570 <aes_get_updated_iv_from_memory+0x1c>
  1025b6:	85a6                	mv	a1,s1
  1025b8:	8522                	mv	a0,s0
  1025ba:	eb5ff0ef          	jal	ra,10246e <aes_ofb_extract_iv>
  1025be:	2501                	sext.w	a0,a0
  1025c0:	bfd9                	j	102596 <aes_get_updated_iv_from_memory+0x42>
  1025c2:	0fb00513          	li	a0,251
  1025c6:	8082                	ret
  1025c8:	0fb00513          	li	a0,251
  1025cc:	8082                	ret
  1025ce:	0fb00513          	li	a0,251
  1025d2:	8082                	ret
  1025d4:	0fb00513          	li	a0,251
  1025d8:	8082                	ret

00000000001025da <se_write_keybuf>:
  1025da:	715d                	addi	sp,sp,-80
  1025dc:	e486                	sd	ra,72(sp)
  1025de:	e0a2                	sd	s0,64(sp)
  1025e0:	fc26                	sd	s1,56(sp)
  1025e2:	f84a                	sd	s2,48(sp)
  1025e4:	f44e                	sd	s3,40(sp)
  1025e6:	f052                	sd	s4,32(sp)
  1025e8:	ec56                	sd	s5,24(sp)
  1025ea:	e85a                	sd	s6,16(sp)
  1025ec:	842a                	mv	s0,a0
  1025ee:	8b2e                	mv	s6,a1
  1025f0:	8a32                	mv	s4,a2
  1025f2:	8ab6                	mv	s5,a3
  1025f4:	491c                	lw	a5,16(a0)
  1025f6:	4741                	li	a4,16
  1025f8:	02e7ef63          	bltu	a5,a4,102636 <se_write_keybuf+0x5c>
  1025fc:	4745                	li	a4,17
  1025fe:	04f77163          	bleu	a5,a4,102640 <se_write_keybuf+0x66>
  102602:	474d                	li	a4,19
  102604:	00e79a63          	bne	a5,a4,102618 <se_write_keybuf+0x3e>
  102608:	6911                	lui	s2,0x4
  10260a:	09890993          	addi	s3,s2,152 # 4098 <imem_shr_size+0x98>
  10260e:	09490913          	addi	s2,s2,148
  102612:	0f000513          	li	a0,240
  102616:	a029                	j	102620 <se_write_keybuf+0x46>
  102618:	4981                	li	s3,0
  10261a:	4901                	li	s2,0
  10261c:	0f900513          	li	a0,249
  102620:	0f000793          	li	a5,240
  102624:	12f51463          	bne	a0,a5,10274c <se_write_keybuf+0x172>
  102628:	100a0e63          	beqz	s4,102744 <se_write_keybuf+0x16a>
  10262c:	47a1                	li	a5,8
  10262e:	1157ed63          	bltu	a5,s5,102748 <se_write_keybuf+0x16e>
  102632:	4481                	li	s1,0
  102634:	a875                	j	1026f0 <se_write_keybuf+0x116>
  102636:	4981                	li	s3,0
  102638:	4901                	li	s2,0
  10263a:	0f900513          	li	a0,249
  10263e:	b7cd                	j	102620 <se_write_keybuf+0x46>
  102640:	6905                	lui	s2,0x1
  102642:	0c090993          	addi	s3,s2,192 # 10c0 <dmem_sk_size+0xc0>
  102646:	0bc90913          	addi	s2,s2,188
  10264a:	0f000513          	li	a0,240
  10264e:	bfc9                	j	102620 <se_write_keybuf+0x46>
  102650:	874a                	mv	a4,s2
  102652:	641c                	ld	a5,8(s0)
  102654:	6b9c                	ld	a5,16(a5)
  102656:	1702                	slli	a4,a4,0x20
  102658:	9301                	srli	a4,a4,0x20
  10265a:	97ba                	add	a5,a5,a4
  10265c:	1782                	slli	a5,a5,0x20
  10265e:	9381                	srli	a5,a5,0x20
  102660:	c394                	sw	a3,0(a5)
  102662:	060a0b63          	beqz	s4,1026d8 <se_write_keybuf+0xfe>
  102666:	0024961b          	slliw	a2,s1,0x2
  10266a:	1602                	slli	a2,a2,0x20
  10266c:	9201                	srli	a2,a2,0x20
  10266e:	9652                	add	a2,a2,s4
  102670:	00364783          	lbu	a5,3(a2)
  102674:	00264683          	lbu	a3,2(a2)
  102678:	00164703          	lbu	a4,1(a2)
  10267c:	00064603          	lbu	a2,0(a2)
  102680:	0ff7f793          	andi	a5,a5,255
  102684:	0ff6f693          	andi	a3,a3,255
  102688:	0ff77713          	andi	a4,a4,255
  10268c:	0187979b          	slliw	a5,a5,0x18
  102690:	0106969b          	slliw	a3,a3,0x10
  102694:	8fd5                	or	a5,a5,a3
  102696:	2781                	sext.w	a5,a5
  102698:	0087171b          	slliw	a4,a4,0x8
  10269c:	8fd9                	or	a5,a5,a4
  10269e:	2781                	sext.w	a5,a5
  1026a0:	0ff67613          	andi	a2,a2,255
  1026a4:	8fd1                	or	a5,a5,a2
  1026a6:	02044703          	lbu	a4,32(s0)
  1026aa:	cb0d                	beqz	a4,1026dc <se_write_keybuf+0x102>
  1026ac:	5054                	lw	a3,36(s0)
  1026ae:	08d9e563          	bltu	s3,a3,102738 <se_write_keybuf+0x15e>
  1026b2:	5418                	lw	a4,40(s0)
  1026b4:	09376463          	bltu	a4,s3,10273c <se_write_keybuf+0x162>
  1026b8:	40d986bb          	subw	a3,s3,a3
  1026bc:	4c10                	lw	a2,24(s0)
  1026be:	fff6c713          	not	a4,a3
  1026c2:	2701                	sext.w	a4,a4
  1026c4:	06c76e63          	bltu	a4,a2,102740 <se_write_keybuf+0x166>
  1026c8:	9eb1                	addw	a3,a3,a2
  1026ca:	a811                	j	1026de <se_write_keybuf+0x104>
  1026cc:	874a                	mv	a4,s2
  1026ce:	b751                	j	102652 <se_write_keybuf+0x78>
  1026d0:	874a                	mv	a4,s2
  1026d2:	b741                	j	102652 <se_write_keybuf+0x78>
  1026d4:	874a                	mv	a4,s2
  1026d6:	bfb5                	j	102652 <se_write_keybuf+0x78>
  1026d8:	4781                	li	a5,0
  1026da:	b7f1                	j	1026a6 <se_write_keybuf+0xcc>
  1026dc:	86ce                	mv	a3,s3
  1026de:	6418                	ld	a4,8(s0)
  1026e0:	6b18                	ld	a4,16(a4)
  1026e2:	1682                	slli	a3,a3,0x20
  1026e4:	9281                	srli	a3,a3,0x20
  1026e6:	9736                	add	a4,a4,a3
  1026e8:	1702                	slli	a4,a4,0x20
  1026ea:	9301                	srli	a4,a4,0x20
  1026ec:	c31c                	sw	a5,0(a4)
  1026ee:	2485                	addiw	s1,s1,1
  1026f0:	0554fe63          	bleu	s5,s1,10274c <se_write_keybuf+0x172>
  1026f4:	c602                	sw	zero,12(sp)
  1026f6:	0078                	addi	a4,sp,12
  1026f8:	86a6                	mv	a3,s1
  1026fa:	05f00613          	li	a2,95
  1026fe:	85da                	mv	a1,s6
  102700:	4808                	lw	a0,16(s0)
  102702:	df8ff0ef          	jal	ra,101cfa <se_create_keyslot_pkt>
  102706:	2501                	sext.w	a0,a0
  102708:	0f000793          	li	a5,240
  10270c:	04f51063          	bne	a0,a5,10274c <se_write_keybuf+0x172>
  102710:	46b2                	lw	a3,12(sp)
  102712:	02044783          	lbu	a5,32(s0)
  102716:	df8d                	beqz	a5,102650 <se_write_keybuf+0x76>
  102718:	5058                	lw	a4,36(s0)
  10271a:	fae969e3          	bltu	s2,a4,1026cc <se_write_keybuf+0xf2>
  10271e:	541c                	lw	a5,40(s0)
  102720:	fb27e8e3          	bltu	a5,s2,1026d0 <se_write_keybuf+0xf6>
  102724:	40e9073b          	subw	a4,s2,a4
  102728:	4c10                	lw	a2,24(s0)
  10272a:	fff74793          	not	a5,a4
  10272e:	2781                	sext.w	a5,a5
  102730:	fac7e2e3          	bltu	a5,a2,1026d4 <se_write_keybuf+0xfa>
  102734:	9f31                	addw	a4,a4,a2
  102736:	bf31                	j	102652 <se_write_keybuf+0x78>
  102738:	86ce                	mv	a3,s3
  10273a:	b755                	j	1026de <se_write_keybuf+0x104>
  10273c:	86ce                	mv	a3,s3
  10273e:	b745                	j	1026de <se_write_keybuf+0x104>
  102740:	86ce                	mv	a3,s3
  102742:	bf71                	j	1026de <se_write_keybuf+0x104>
  102744:	4aa1                	li	s5,8
  102746:	b5f5                	j	102632 <se_write_keybuf+0x58>
  102748:	0fb00513          	li	a0,251
  10274c:	60a6                	ld	ra,72(sp)
  10274e:	6406                	ld	s0,64(sp)
  102750:	74e2                	ld	s1,56(sp)
  102752:	7942                	ld	s2,48(sp)
  102754:	79a2                	ld	s3,40(sp)
  102756:	7a02                	ld	s4,32(sp)
  102758:	6ae2                	ld	s5,24(sp)
  10275a:	6b42                	ld	s6,16(sp)
  10275c:	6161                	addi	sp,sp,80
  10275e:	8082                	ret

0000000000102760 <kac_kslot_write_kbuf_locked>:
  102760:	619c                	ld	a5,0(a1)
  102762:	c385                	beqz	a5,102782 <kac_kslot_write_kbuf_locked+0x22>
  102764:	4594                	lw	a3,8(a1)
  102766:	08000713          	li	a4,128
  10276a:	02e68363          	beq	a3,a4,102790 <kac_kslot_write_kbuf_locked+0x30>
  10276e:	0c000713          	li	a4,192
  102772:	02e68d63          	beq	a3,a4,1027ac <kac_kslot_write_kbuf_locked+0x4c>
  102776:	10000713          	li	a4,256
  10277a:	00e68963          	beq	a3,a4,10278c <kac_kslot_write_kbuf_locked+0x2c>
  10277e:	4701                	li	a4,0
  102780:	a809                	j	102792 <kac_kslot_write_kbuf_locked+0x32>
  102782:	00062023          	sw	zero,0(a2)
  102786:	0006a023          	sw	zero,0(a3)
  10278a:	bfe9                	j	102764 <kac_kslot_write_kbuf_locked+0x4>
  10278c:	4705                	li	a4,1
  10278e:	a011                	j	102792 <kac_kslot_write_kbuf_locked+0x32>
  102790:	4705                	li	a4,1
  102792:	cf19                	beqz	a4,1027b0 <kac_kslot_write_kbuf_locked+0x50>
  102794:	1141                	addi	sp,sp,-16
  102796:	e406                	sd	ra,8(sp)
  102798:	0056d69b          	srliw	a3,a3,0x5
  10279c:	863e                	mv	a2,a5
  10279e:	45cc                	lw	a1,12(a1)
  1027a0:	e3bff0ef          	jal	ra,1025da <se_write_keybuf>
  1027a4:	2501                	sext.w	a0,a0
  1027a6:	60a2                	ld	ra,8(sp)
  1027a8:	0141                	addi	sp,sp,16
  1027aa:	8082                	ret
  1027ac:	4705                	li	a4,1
  1027ae:	b7d5                	j	102792 <kac_kslot_write_kbuf_locked+0x32>
  1027b0:	0f900513          	li	a0,249
  1027b4:	8082                	ret

00000000001027b6 <kac_setup_keyslot_data_locked>:
  1027b6:	7139                	addi	sp,sp,-64
  1027b8:	fc06                	sd	ra,56(sp)
  1027ba:	f822                	sd	s0,48(sp)
  1027bc:	f426                	sd	s1,40(sp)
  1027be:	f04a                	sd	s2,32(sp)
  1027c0:	ec4e                	sd	s3,24(sp)
  1027c2:	e852                	sd	s4,16(sp)
  1027c4:	c602                	sw	zero,12(sp)
  1027c6:	c402                	sw	zero,8(sp)
  1027c8:	12050663          	beqz	a0,1028f4 <kac_setup_keyslot_data_locked+0x13e>
  1027cc:	12058763          	beqz	a1,1028fa <kac_setup_keyslot_data_locked+0x144>
  1027d0:	491c                	lw	a5,16(a0)
  1027d2:	4741                	li	a4,16
  1027d4:	04e7e163          	bltu	a5,a4,102816 <kac_setup_keyslot_data_locked+0x60>
  1027d8:	4745                	li	a4,17
  1027da:	04f77363          	bleu	a5,a4,102820 <kac_setup_keyslot_data_locked+0x6a>
  1027de:	474d                	li	a4,19
  1027e0:	00e79a63          	bne	a5,a4,1027f4 <kac_setup_keyslot_data_locked+0x3e>
  1027e4:	6411                	lui	s0,0x4
  1027e6:	0a040993          	addi	s3,s0,160 # 40a0 <imem_shr_size+0xa0>
  1027ea:	09c40413          	addi	s0,s0,156
  1027ee:	0f000793          	li	a5,240
  1027f2:	a029                	j	1027fc <kac_setup_keyslot_data_locked+0x46>
  1027f4:	4981                	li	s3,0
  1027f6:	4401                	li	s0,0
  1027f8:	0f900793          	li	a5,249
  1027fc:	0f000713          	li	a4,240
  102800:	02e78863          	beq	a5,a4,102830 <kac_setup_keyslot_data_locked+0x7a>
  102804:	853e                	mv	a0,a5
  102806:	70e2                	ld	ra,56(sp)
  102808:	7442                	ld	s0,48(sp)
  10280a:	74a2                	ld	s1,40(sp)
  10280c:	7902                	ld	s2,32(sp)
  10280e:	69e2                	ld	s3,24(sp)
  102810:	6a42                	ld	s4,16(sp)
  102812:	6121                	addi	sp,sp,64
  102814:	8082                	ret
  102816:	4981                	li	s3,0
  102818:	4401                	li	s0,0
  10281a:	0f900793          	li	a5,249
  10281e:	bff9                	j	1027fc <kac_setup_keyslot_data_locked+0x46>
  102820:	6405                	lui	s0,0x1
  102822:	11840993          	addi	s3,s0,280 # 1118 <dmem_sk_size+0x118>
  102826:	11440413          	addi	s0,s0,276
  10282a:	0f000793          	li	a5,240
  10282e:	b7f9                	j	1027fc <kac_setup_keyslot_data_locked+0x46>
  102830:	8a32                	mv	s4,a2
  102832:	892e                	mv	s2,a1
  102834:	84aa                	mv	s1,a0
  102836:	006c                	addi	a1,sp,12
  102838:	01890513          	addi	a0,s2,24
  10283c:	d52ff0ef          	jal	ra,101d8e <kac_pack_manifest>
  102840:	0005079b          	sext.w	a5,a0
  102844:	0f000713          	li	a4,240
  102848:	fae79ee3          	bne	a5,a4,102804 <kac_setup_keyslot_data_locked+0x4e>
  10284c:	002c                	addi	a1,sp,8
  10284e:	03090513          	addi	a0,s2,48
  102852:	da6ff0ef          	jal	ra,101df8 <kac_pack_ctrl>
  102856:	0005079b          	sext.w	a5,a0
  10285a:	0f000713          	li	a4,240
  10285e:	fae793e3          	bne	a5,a4,102804 <kac_setup_keyslot_data_locked+0x4e>
  102862:	060a1c63          	bnez	s4,1028da <kac_setup_keyslot_data_locked+0x124>
  102866:	46b2                	lw	a3,12(sp)
  102868:	0204c703          	lbu	a4,32(s1)
  10286c:	c30d                	beqz	a4,10288e <kac_setup_keyslot_data_locked+0xd8>
  10286e:	50d8                	lw	a4,36(s1)
  102870:	00e46f63          	bltu	s0,a4,10288e <kac_setup_keyslot_data_locked+0xd8>
  102874:	5490                	lw	a2,40(s1)
  102876:	00866c63          	bltu	a2,s0,10288e <kac_setup_keyslot_data_locked+0xd8>
  10287a:	40e4073b          	subw	a4,s0,a4
  10287e:	4c8c                	lw	a1,24(s1)
  102880:	fff74613          	not	a2,a4
  102884:	2601                	sext.w	a2,a2
  102886:	00b66463          	bltu	a2,a1,10288e <kac_setup_keyslot_data_locked+0xd8>
  10288a:	00b7043b          	addw	s0,a4,a1
  10288e:	6498                	ld	a4,8(s1)
  102890:	6b18                	ld	a4,16(a4)
  102892:	1402                	slli	s0,s0,0x20
  102894:	9001                	srli	s0,s0,0x20
  102896:	943a                	add	s0,s0,a4
  102898:	1402                	slli	s0,s0,0x20
  10289a:	9001                	srli	s0,s0,0x20
  10289c:	c014                	sw	a3,0(s0)
  10289e:	4622                	lw	a2,8(sp)
  1028a0:	0204c703          	lbu	a4,32(s1)
  1028a4:	c30d                	beqz	a4,1028c6 <kac_setup_keyslot_data_locked+0x110>
  1028a6:	50d8                	lw	a4,36(s1)
  1028a8:	00e9ef63          	bltu	s3,a4,1028c6 <kac_setup_keyslot_data_locked+0x110>
  1028ac:	5494                	lw	a3,40(s1)
  1028ae:	0136ec63          	bltu	a3,s3,1028c6 <kac_setup_keyslot_data_locked+0x110>
  1028b2:	40e9873b          	subw	a4,s3,a4
  1028b6:	4c8c                	lw	a1,24(s1)
  1028b8:	fff74693          	not	a3,a4
  1028bc:	2681                	sext.w	a3,a3
  1028be:	00b6e463          	bltu	a3,a1,1028c6 <kac_setup_keyslot_data_locked+0x110>
  1028c2:	00b709bb          	addw	s3,a4,a1
  1028c6:	6498                	ld	a4,8(s1)
  1028c8:	6b14                	ld	a3,16(a4)
  1028ca:	02099713          	slli	a4,s3,0x20
  1028ce:	9301                	srli	a4,a4,0x20
  1028d0:	9736                	add	a4,a4,a3
  1028d2:	1702                	slli	a4,a4,0x20
  1028d4:	9301                	srli	a4,a4,0x20
  1028d6:	c310                	sw	a2,0(a4)
  1028d8:	b735                	j	102804 <kac_setup_keyslot_data_locked+0x4e>
  1028da:	0034                	addi	a3,sp,8
  1028dc:	0070                	addi	a2,sp,12
  1028de:	85ca                	mv	a1,s2
  1028e0:	8526                	mv	a0,s1
  1028e2:	e7fff0ef          	jal	ra,102760 <kac_kslot_write_kbuf_locked>
  1028e6:	0005079b          	sext.w	a5,a0
  1028ea:	0f000713          	li	a4,240
  1028ee:	f0e79be3          	bne	a5,a4,102804 <kac_setup_keyslot_data_locked+0x4e>
  1028f2:	bf95                	j	102866 <kac_setup_keyslot_data_locked+0xb0>
  1028f4:	0f900793          	li	a5,249
  1028f8:	b731                	j	102804 <kac_setup_keyslot_data_locked+0x4e>
  1028fa:	0f900793          	li	a5,249
  1028fe:	b719                	j	102804 <kac_setup_keyslot_data_locked+0x4e>

0000000000102900 <setup_kac_engine_write_keyslot_regs>:
  102900:	715d                	addi	sp,sp,-80
  102902:	e486                	sd	ra,72(sp)
  102904:	e0a2                	sd	s0,64(sp)
  102906:	fc26                	sd	s1,56(sp)
  102908:	f84a                	sd	s2,48(sp)
  10290a:	f44e                	sd	s3,40(sp)
  10290c:	f052                	sd	s4,32(sp)
  10290e:	ec56                	sd	s5,24(sp)
  102910:	e85a                	sd	s6,16(sp)
  102912:	c602                	sw	zero,12(sp)
  102914:	491c                	lw	a5,16(a0)
  102916:	4741                	li	a4,16
  102918:	06e7ed63          	bltu	a5,a4,102992 <setup_kac_engine_write_keyslot_regs+0x92>
  10291c:	4745                	li	a4,17
  10291e:	04f77b63          	bleu	a5,a4,102974 <setup_kac_engine_write_keyslot_regs+0x74>
  102922:	474d                	li	a4,19
  102924:	02e79263          	bne	a5,a4,102948 <setup_kac_engine_write_keyslot_regs+0x48>
  102928:	45dc                	lw	a5,12(a1)
  10292a:	0087979b          	slliw	a5,a5,0x8
  10292e:	6705                	lui	a4,0x1
  102930:	f0070713          	addi	a4,a4,-256 # f00 <dmem_print_size+0x700>
  102934:	8ff9                	and	a5,a5,a4
  102936:	0007899b          	sext.w	s3,a5
  10293a:	6411                	lui	s0,0x4
  10293c:	0a840a13          	addi	s4,s0,168 # 40a8 <imem_shr_size+0xa8>
  102940:	0411                	addi	s0,s0,4
  102942:	0f000793          	li	a5,240
  102946:	a801                	j	102956 <setup_kac_engine_write_keyslot_regs+0x56>
  102948:	6405                	lui	s0,0x1
  10294a:	03040a13          	addi	s4,s0,48 # 1030 <dmem_sk_size+0x30>
  10294e:	0411                	addi	s0,s0,4
  102950:	4981                	li	s3,0
  102952:	0f900793          	li	a5,249
  102956:	0f000713          	li	a4,240
  10295a:	04e78463          	beq	a5,a4,1029a2 <setup_kac_engine_write_keyslot_regs+0xa2>
  10295e:	853e                	mv	a0,a5
  102960:	60a6                	ld	ra,72(sp)
  102962:	6406                	ld	s0,64(sp)
  102964:	74e2                	ld	s1,56(sp)
  102966:	7942                	ld	s2,48(sp)
  102968:	79a2                	ld	s3,40(sp)
  10296a:	7a02                	ld	s4,32(sp)
  10296c:	6ae2                	ld	s5,24(sp)
  10296e:	6b42                	ld	s6,16(sp)
  102970:	6161                	addi	sp,sp,80
  102972:	8082                	ret
  102974:	45dc                	lw	a5,12(a1)
  102976:	0087979b          	slliw	a5,a5,0x8
  10297a:	6405                	lui	s0,0x1
  10297c:	f0040713          	addi	a4,s0,-256 # f00 <dmem_print_size+0x700>
  102980:	8ff9                	and	a5,a5,a4
  102982:	0007899b          	sext.w	s3,a5
  102986:	03040a13          	addi	s4,s0,48
  10298a:	0411                	addi	s0,s0,4
  10298c:	0f000793          	li	a5,240
  102990:	b7d9                	j	102956 <setup_kac_engine_write_keyslot_regs+0x56>
  102992:	6405                	lui	s0,0x1
  102994:	03040a13          	addi	s4,s0,48 # 1030 <dmem_sk_size+0x30>
  102998:	0411                	addi	s0,s0,4
  10299a:	4981                	li	s3,0
  10299c:	0f900793          	li	a5,249
  1029a0:	bf5d                	j	102956 <setup_kac_engine_write_keyslot_regs+0x56>
  1029a2:	8ab6                	mv	s5,a3
  1029a4:	8932                	mv	s2,a2
  1029a6:	8b2e                	mv	s6,a1
  1029a8:	84aa                	mv	s1,a0
  1029aa:	0070                	addi	a2,sp,12
  1029ac:	85ca                	mv	a1,s2
  1029ae:	d0aff0ef          	jal	ra,101eb8 <get_kac_keyslot_op_config_0>
  1029b2:	0005079b          	sext.w	a5,a0
  1029b6:	0f000713          	li	a4,240
  1029ba:	fae792e3          	bne	a5,a4,10295e <setup_kac_engine_write_keyslot_regs+0x5e>
  1029be:	46b2                	lw	a3,12(sp)
  1029c0:	0204c703          	lbu	a4,32(s1)
  1029c4:	c30d                	beqz	a4,1029e6 <setup_kac_engine_write_keyslot_regs+0xe6>
  1029c6:	50d8                	lw	a4,36(s1)
  1029c8:	00e46f63          	bltu	s0,a4,1029e6 <setup_kac_engine_write_keyslot_regs+0xe6>
  1029cc:	5490                	lw	a2,40(s1)
  1029ce:	00866c63          	bltu	a2,s0,1029e6 <setup_kac_engine_write_keyslot_regs+0xe6>
  1029d2:	40e4073b          	subw	a4,s0,a4
  1029d6:	4c8c                	lw	a1,24(s1)
  1029d8:	fff74613          	not	a2,a4
  1029dc:	2601                	sext.w	a2,a2
  1029de:	00b66463          	bltu	a2,a1,1029e6 <setup_kac_engine_write_keyslot_regs+0xe6>
  1029e2:	00b7043b          	addw	s0,a4,a1
  1029e6:	6498                	ld	a4,8(s1)
  1029e8:	6b18                	ld	a4,16(a4)
  1029ea:	1402                	slli	s0,s0,0x20
  1029ec:	9001                	srli	s0,s0,0x20
  1029ee:	943a                	add	s0,s0,a4
  1029f0:	1402                	slli	s0,s0,0x20
  1029f2:	9001                	srli	s0,s0,0x20
  1029f4:	c014                	sw	a3,0(s0)
  1029f6:	0204c703          	lbu	a4,32(s1)
  1029fa:	c30d                	beqz	a4,102a1c <setup_kac_engine_write_keyslot_regs+0x11c>
  1029fc:	50d8                	lw	a4,36(s1)
  1029fe:	00ea6f63          	bltu	s4,a4,102a1c <setup_kac_engine_write_keyslot_regs+0x11c>
  102a02:	5494                	lw	a3,40(s1)
  102a04:	0146ec63          	bltu	a3,s4,102a1c <setup_kac_engine_write_keyslot_regs+0x11c>
  102a08:	40ea073b          	subw	a4,s4,a4
  102a0c:	4c90                	lw	a2,24(s1)
  102a0e:	fff74693          	not	a3,a4
  102a12:	2681                	sext.w	a3,a3
  102a14:	00c6e463          	bltu	a3,a2,102a1c <setup_kac_engine_write_keyslot_regs+0x11c>
  102a18:	00c70a3b          	addw	s4,a4,a2
  102a1c:	6498                	ld	a4,8(s1)
  102a1e:	6b14                	ld	a3,16(a4)
  102a20:	020a1713          	slli	a4,s4,0x20
  102a24:	9301                	srli	a4,a4,0x20
  102a26:	9736                	add	a4,a4,a3
  102a28:	1702                	slli	a4,a4,0x20
  102a2a:	9301                	srli	a4,a4,0x20
  102a2c:	01372023          	sw	s3,0(a4)
  102a30:	02600713          	li	a4,38
  102a34:	f2e905e3          	beq	s2,a4,10295e <setup_kac_engine_write_keyslot_regs+0x5e>
  102a38:	8656                	mv	a2,s5
  102a3a:	85da                	mv	a1,s6
  102a3c:	8526                	mv	a0,s1
  102a3e:	d79ff0ef          	jal	ra,1027b6 <kac_setup_keyslot_data_locked>
  102a42:	0005079b          	sext.w	a5,a0
  102a46:	bf21                	j	10295e <setup_kac_engine_write_keyslot_regs+0x5e>

0000000000102a48 <kac_engine_write_keyslot_locked>:
  102a48:	7179                	addi	sp,sp,-48
  102a4a:	f406                	sd	ra,40(sp)
  102a4c:	f022                	sd	s0,32(sp)
  102a4e:	ec26                	sd	s1,24(sp)
  102a50:	e84a                	sd	s2,16(sp)
  102a52:	e44e                	sd	s3,8(sp)
  102a54:	84aa                	mv	s1,a0
  102a56:	89ae                	mv	s3,a1
  102a58:	8432                	mv	s0,a2
  102a5a:	cd25                	beqz	a0,102ad2 <kac_engine_write_keyslot_locked+0x8a>
  102a5c:	fdc60693          	addi	a3,a2,-36
  102a60:	0016b693          	seqz	a3,a3
  102a64:	e9dff0ef          	jal	ra,102900 <setup_kac_engine_write_keyslot_regs>
  102a68:	0005091b          	sext.w	s2,a0
  102a6c:	0f000793          	li	a5,240
  102a70:	00f90e63          	beq	s2,a5,102a8c <kac_engine_write_keyslot_locked+0x44>
  102a74:	02400793          	li	a5,36
  102a78:	06f40063          	beq	s0,a5,102ad8 <kac_engine_write_keyslot_locked+0x90>
  102a7c:	854a                	mv	a0,s2
  102a7e:	70a2                	ld	ra,40(sp)
  102a80:	7402                	ld	s0,32(sp)
  102a82:	64e2                	ld	s1,24(sp)
  102a84:	6942                	ld	s2,16(sp)
  102a86:	69a2                	ld	s3,8(sp)
  102a88:	6145                	addi	sp,sp,48
  102a8a:	8082                	ret
  102a8c:	4581                	li	a1,0
  102a8e:	8526                	mv	a0,s1
  102a90:	0f9010ef          	jal	ra,104388 <tegra_start_se0_operation_locked>
  102a94:	0005091b          	sext.w	s2,a0
  102a98:	0f000793          	li	a5,240
  102a9c:	fcf91ce3          	bne	s2,a5,102a74 <kac_engine_write_keyslot_locked+0x2c>
  102aa0:	8526                	mv	a0,s1
  102aa2:	16d010ef          	jal	ra,10440e <se_wait_engine_free>
  102aa6:	0005091b          	sext.w	s2,a0
  102aaa:	0f000793          	li	a5,240
  102aae:	fcf913e3          	bne	s2,a5,102a74 <kac_engine_write_keyslot_locked+0x2c>
  102ab2:	fffff597          	auipc	a1,0xfffff
  102ab6:	f3658593          	addi	a1,a1,-202 # 1019e8 <hw_cdev.2592+0x68>
  102aba:	8526                	mv	a0,s1
  102abc:	1a7010ef          	jal	ra,104462 <se_engine_get_err_status>
  102ac0:	2501                	sext.w	a0,a0
  102ac2:	0f000793          	li	a5,240
  102ac6:	00f50463          	beq	a0,a5,102ace <kac_engine_write_keyslot_locked+0x86>
  102aca:	892a                	mv	s2,a0
  102acc:	b765                	j	102a74 <kac_engine_write_keyslot_locked+0x2c>
  102ace:	854a                	mv	a0,s2
  102ad0:	bfed                	j	102aca <kac_engine_write_keyslot_locked+0x82>
  102ad2:	0f900913          	li	s2,249
  102ad6:	bf79                	j	102a74 <kac_engine_write_keyslot_locked+0x2c>
  102ad8:	fa0982e3          	beqz	s3,102a7c <kac_engine_write_keyslot_locked+0x34>
  102adc:	d0c5                	beqz	s1,102a7c <kac_engine_write_keyslot_locked+0x34>
  102ade:	4681                	li	a3,0
  102ae0:	4601                	li	a2,0
  102ae2:	00c9a583          	lw	a1,12(s3)
  102ae6:	8526                	mv	a0,s1
  102ae8:	af3ff0ef          	jal	ra,1025da <se_write_keybuf>
  102aec:	bf41                	j	102a7c <kac_engine_write_keyslot_locked+0x34>

0000000000102aee <kac_keyop_purpose_locked>:
  102aee:	7135                	addi	sp,sp,-160
  102af0:	ed06                	sd	ra,152(sp)
  102af2:	e922                	sd	s0,144(sp)
  102af4:	e526                	sd	s1,136(sp)
  102af6:	e14a                	sd	s2,128(sp)
  102af8:	fcce                	sd	s3,120(sp)
  102afa:	f8d2                	sd	s4,112(sp)
  102afc:	f4d6                	sd	s5,104(sp)
  102afe:	f0da                	sd	s6,96(sp)
  102b00:	ecde                	sd	s7,88(sp)
  102b02:	5a8a                	lw	s5,160(sp)
  102b04:	ec02                	sd	zero,24(sp)
  102b06:	f002                	sd	zero,32(sp)
  102b08:	f402                	sd	zero,40(sp)
  102b0a:	f802                	sd	zero,48(sp)
  102b0c:	fc02                	sd	zero,56(sp)
  102b0e:	e082                	sd	zero,64(sp)
  102b10:	e482                	sd	zero,72(sp)
  102b12:	c92d                	beqz	a0,102b84 <kac_keyop_purpose_locked+0x96>
  102b14:	433d                	li	t1,15
  102b16:	06b36a63          	bltu	t1,a1,102b8a <kac_keyop_purpose_locked+0x9c>
  102b1a:	89c6                	mv	s3,a7
  102b1c:	8a42                	mv	s4,a6
  102b1e:	893e                	mv	s2,a5
  102b20:	8b36                	mv	s6,a3
  102b22:	84b2                	mv	s1,a2
  102b24:	842e                	mv	s0,a1
  102b26:	8baa                	mv	s7,a0
  102b28:	853a                	mv	a0,a4
  102b2a:	c80ff0ef          	jal	ra,101faa <ks_map_manifest_user>
  102b2e:	0005079b          	sext.w	a5,a0
  102b32:	d222                	sw	s0,36(sp)
  102b34:	fdba871b          	addiw	a4,s5,-37
  102b38:	4685                	li	a3,1
  102b3a:	02e6f863          	bleu	a4,a3,102b6a <kac_keyop_purpose_locked+0x7c>
  102b3e:	e052                	sd	s4,0(sp)
  102b40:	88ce                	mv	a7,s3
  102b42:	884a                	mv	a6,s2
  102b44:	875a                	mv	a4,s6
  102b46:	86a6                	mv	a3,s1
  102b48:	865e                	mv	a2,s7
  102b4a:	85d6                	mv	a1,s5
  102b4c:	0828                	addi	a0,sp,24
  102b4e:	ce0ff0ef          	jal	ra,10202e <ks_set_for_algo>
  102b52:	2501                	sext.w	a0,a0
  102b54:	0f000793          	li	a5,240
  102b58:	00f51b63          	bne	a0,a5,102b6e <kac_keyop_purpose_locked+0x80>
  102b5c:	8656                	mv	a2,s5
  102b5e:	082c                	addi	a1,sp,24
  102b60:	855e                	mv	a0,s7
  102b62:	ee7ff0ef          	jal	ra,102a48 <kac_engine_write_keyslot_locked>
  102b66:	2501                	sext.w	a0,a0
  102b68:	a019                	j	102b6e <kac_keyop_purpose_locked+0x80>
  102b6a:	0f200513          	li	a0,242
  102b6e:	60ea                	ld	ra,152(sp)
  102b70:	644a                	ld	s0,144(sp)
  102b72:	64aa                	ld	s1,136(sp)
  102b74:	690a                	ld	s2,128(sp)
  102b76:	79e6                	ld	s3,120(sp)
  102b78:	7a46                	ld	s4,112(sp)
  102b7a:	7aa6                	ld	s5,104(sp)
  102b7c:	7b06                	ld	s6,96(sp)
  102b7e:	6be6                	ld	s7,88(sp)
  102b80:	610d                	addi	sp,sp,160
  102b82:	8082                	ret
  102b84:	0f900513          	li	a0,249
  102b88:	b7dd                	j	102b6e <kac_keyop_purpose_locked+0x80>
  102b8a:	0f900513          	li	a0,249
  102b8e:	b7c5                	j	102b6e <kac_keyop_purpose_locked+0x80>

0000000000102b90 <kac_keyop_locked>:
  102b90:	7159                	addi	sp,sp,-112
  102b92:	f486                	sd	ra,104(sp)
  102b94:	f0a2                	sd	s0,96(sp)
  102b96:	eca6                	sd	s1,88(sp)
  102b98:	e8ca                	sd	s2,80(sp)
  102b9a:	e4ce                	sd	s3,72(sp)
  102b9c:	e0d2                	sd	s4,64(sp)
  102b9e:	fc56                	sd	s5,56(sp)
  102ba0:	f85a                	sd	s6,48(sp)
  102ba2:	f45e                	sd	s7,40(sp)
  102ba4:	892a                	mv	s2,a0
  102ba6:	89ae                	mv	s3,a1
  102ba8:	8a32                	mv	s4,a2
  102baa:	8ab6                	mv	s5,a3
  102bac:	8b3a                	mv	s6,a4
  102bae:	84c2                	mv	s1,a6
  102bb0:	8bc6                	mv	s7,a7
  102bb2:	5446                	lw	s0,112(sp)
  102bb4:	6715                	lui	a4,0x5
  102bb6:	b1d7071b          	addiw	a4,a4,-1251
  102bba:	ce3a                	sw	a4,28(sp)
  102bbc:	fdb4069b          	addiw	a3,s0,-37
  102bc0:	4705                	li	a4,1
  102bc2:	00d77c63          	bleu	a3,a4,102bda <kac_keyop_locked+0x4a>
  102bc6:	8642                	mv	a2,a6
  102bc8:	086c                	addi	a1,sp,28
  102bca:	853e                	mv	a0,a5
  102bcc:	89cff0ef          	jal	ra,101c68 <se_map_algorithm_to_purpose>
  102bd0:	2501                	sext.w	a0,a0
  102bd2:	0f000793          	li	a5,240
  102bd6:	02f51063          	bne	a0,a5,102bf6 <kac_keyop_locked+0x66>
  102bda:	57e6                	lw	a5,120(sp)
  102bdc:	e43e                	sd	a5,8(sp)
  102bde:	e022                	sd	s0,0(sp)
  102be0:	88de                	mv	a7,s7
  102be2:	8826                	mv	a6,s1
  102be4:	47f2                	lw	a5,28(sp)
  102be6:	875a                	mv	a4,s6
  102be8:	86d6                	mv	a3,s5
  102bea:	8652                	mv	a2,s4
  102bec:	85ce                	mv	a1,s3
  102bee:	854a                	mv	a0,s2
  102bf0:	effff0ef          	jal	ra,102aee <kac_keyop_purpose_locked>
  102bf4:	2501                	sext.w	a0,a0
  102bf6:	70a6                	ld	ra,104(sp)
  102bf8:	7406                	ld	s0,96(sp)
  102bfa:	64e6                	ld	s1,88(sp)
  102bfc:	6946                	ld	s2,80(sp)
  102bfe:	69a6                	ld	s3,72(sp)
  102c00:	6a06                	ld	s4,64(sp)
  102c02:	7ae2                	ld	s5,56(sp)
  102c04:	7b42                	ld	s6,48(sp)
  102c06:	7ba2                	ld	s7,40(sp)
  102c08:	6165                	addi	sp,sp,112
  102c0a:	8082                	ret

0000000000102c0c <se_set_engine_kac_keyslot_locked>:
  102c0c:	1101                	addi	sp,sp,-32
  102c0e:	ec06                	sd	ra,24(sp)
  102c10:	8346                	mv	t1,a7
  102c12:	48c1                	li	a7,16
  102c14:	e446                	sd	a7,8(sp)
  102c16:	02400893          	li	a7,36
  102c1a:	e046                	sd	a7,0(sp)
  102c1c:	88c2                	mv	a7,a6
  102c1e:	883e                	mv	a6,a5
  102c20:	879a                	mv	a5,t1
  102c22:	f6fff0ef          	jal	ra,102b90 <kac_keyop_locked>
  102c26:	2501                	sext.w	a0,a0
  102c28:	60e2                	ld	ra,24(sp)
  102c2a:	6105                	addi	sp,sp,32
  102c2c:	8082                	ret

0000000000102c2e <aes_set_key_locked>:
  102c2e:	1141                	addi	sp,sp,-16
  102c30:	e406                	sd	ra,8(sp)
  102c32:	8336                	mv	t1,a3
  102c34:	015007b7          	lui	a5,0x1500
  102c38:	4bd4                	lw	a3,20(a5)
  102c3a:	88ba                	mv	a7,a4
  102c3c:	4801                	li	a6,0
  102c3e:	4781                	li	a5,0
  102c40:	0076f713          	andi	a4,a3,7
  102c44:	86b2                	mv	a3,a2
  102c46:	861a                	mv	a2,t1
  102c48:	fc5ff0ef          	jal	ra,102c0c <se_set_engine_kac_keyslot_locked>
  102c4c:	2501                	sext.w	a0,a0
  102c4e:	60a2                	ld	ra,8(sp)
  102c50:	0141                	addi	sp,sp,16
  102c52:	8082                	ret

0000000000102c54 <engine_aes_write_keyslot>:
  102c54:	1141                	addi	sp,sp,-16
  102c56:	e406                	sd	ra,8(sp)
  102c58:	e022                	sd	s0,0(sp)
  102c5a:	842a                	mv	s0,a0
  102c5c:	4918                	lw	a4,16(a0)
  102c5e:	7514                	ld	a3,40(a0)
  102c60:	5910                	lw	a2,48(a0)
  102c62:	594c                	lw	a1,52(a0)
  102c64:	6108                	ld	a0,0(a0)
  102c66:	fc9ff0ef          	jal	ra,102c2e <aes_set_key_locked>
  102c6a:	2501                	sext.w	a0,a0
  102c6c:	0f000793          	li	a5,240
  102c70:	00f51963          	bne	a0,a5,102c82 <engine_aes_write_keyslot+0x2e>
  102c74:	485c                	lw	a5,20(s0)
  102c76:	1007f713          	andi	a4,a5,256
  102c7a:	c701                	beqz	a4,102c82 <engine_aes_write_keyslot+0x2e>
  102c7c:	0017e793          	ori	a5,a5,1
  102c80:	c85c                	sw	a5,20(s0)
  102c82:	60a2                	ld	ra,8(sp)
  102c84:	6402                	ld	s0,0(sp)
  102c86:	0141                	addi	sp,sp,16
  102c88:	8082                	ret

0000000000102c8a <engine_aes_op_mode_normal>:
  102c8a:	7139                	addi	sp,sp,-64
  102c8c:	fc06                	sd	ra,56(sp)
  102c8e:	f822                	sd	s0,48(sp)
  102c90:	f426                	sd	s1,40(sp)
  102c92:	f04a                	sd	s2,32(sp)
  102c94:	ec4e                	sd	s3,24(sp)
  102c96:	842a                	mv	s0,a0
  102c98:	892e                	mv	s2,a1
  102c9a:	89b6                	mv	s3,a3
  102c9c:	4944                	lw	s1,20(a0)
  102c9e:	1004f493          	andi	s1,s1,256
  102ca2:	009034b3          	snez	s1,s1
  102ca6:	c631                	beqz	a2,102cf2 <engine_aes_op_mode_normal+0x68>
  102ca8:	0187171b          	slliw	a4,a4,0x18
  102cac:	6685                	lui	a3,0x1
  102cae:	8f55                	or	a4,a4,a3
  102cb0:	c63a                	sw	a4,12(sp)
  102cb2:	4732                	lw	a4,12(sp)
  102cb4:	9b0d                	andi	a4,a4,-29
  102cb6:	0027979b          	slliw	a5,a5,0x2
  102cba:	8bf1                	andi	a5,a5,28
  102cbc:	8fd9                	or	a5,a5,a4
  102cbe:	c63e                	sw	a5,12(sp)
  102cc0:	6014                	ld	a3,0(s0)
  102cc2:	0206c703          	lbu	a4,32(a3) # 1020 <dmem_sk_size+0x20>
  102cc6:	cf1d                	beqz	a4,102d04 <engine_aes_op_mode_normal+0x7a>
  102cc8:	52c8                	lw	a0,36(a3)
  102cca:	6585                	lui	a1,0x1
  102ccc:	0591                	addi	a1,a1,4
  102cce:	0ca5e063          	bltu	a1,a0,102d8e <engine_aes_op_mode_normal+0x104>
  102cd2:	568c                	lw	a1,40(a3)
  102cd4:	6705                	lui	a4,0x1
  102cd6:	070d                	addi	a4,a4,3
  102cd8:	0ab77e63          	bleu	a1,a4,102d94 <engine_aes_op_mode_normal+0x10a>
  102cdc:	6705                	lui	a4,0x1
  102cde:	2711                	addiw	a4,a4,4
  102ce0:	9f09                	subw	a4,a4,a0
  102ce2:	4e88                	lw	a0,24(a3)
  102ce4:	fff74593          	not	a1,a4
  102ce8:	2581                	sext.w	a1,a1
  102cea:	0aa5e863          	bltu	a1,a0,102d9a <engine_aes_op_mode_normal+0x110>
  102cee:	9f29                	addw	a4,a4,a0
  102cf0:	a821                	j	102d08 <engine_aes_op_mode_normal+0x7e>
  102cf2:	0107171b          	slliw	a4,a4,0x10
  102cf6:	00ff06b7          	lui	a3,0xff0
  102cfa:	8f75                	and	a4,a4,a3
  102cfc:	10076713          	ori	a4,a4,256
  102d00:	c63a                	sw	a4,12(sp)
  102d02:	bf45                	j	102cb2 <engine_aes_op_mode_normal+0x28>
  102d04:	6705                	lui	a4,0x1
  102d06:	0711                	addi	a4,a4,4
  102d08:	6694                	ld	a3,8(a3)
  102d0a:	6a94                	ld	a3,16(a3)
  102d0c:	1702                	slli	a4,a4,0x20
  102d0e:	9301                	srli	a4,a4,0x20
  102d10:	9736                	add	a4,a4,a3
  102d12:	1702                	slli	a4,a4,0x20
  102d14:	9301                	srli	a4,a4,0x20
  102d16:	c31c                	sw	a5,0(a4)
  102d18:	c602                	sw	zero,12(sp)
  102d1a:	c259                	beqz	a2,102da0 <engine_aes_op_mode_normal+0x116>
  102d1c:	0070                	addi	a2,sp,12
  102d1e:	85ca                	mv	a1,s2
  102d20:	8522                	mv	a0,s0
  102d22:	b8aff0ef          	jal	ra,1020ac <engine_aes_set_op_mode_encrypt_crypto_config>
  102d26:	2501                	sext.w	a0,a0
  102d28:	0f000793          	li	a5,240
  102d2c:	0af51463          	bne	a0,a5,102dd4 <engine_aes_op_mode_normal+0x14a>
  102d30:	86ce                	mv	a3,s3
  102d32:	8626                	mv	a2,s1
  102d34:	45b2                	lw	a1,12(sp)
  102d36:	854a                	mv	a0,s2
  102d38:	d44ff0ef          	jal	ra,10227c <aes_set_iv_select_field>
  102d3c:	2501                	sext.w	a0,a0
  102d3e:	f10007b7          	lui	a5,0xf1000
  102d42:	17fd                	addi	a5,a5,-1
  102d44:	8d7d                	and	a0,a0,a5
  102d46:	585c                	lw	a5,52(s0)
  102d48:	0187979b          	slliw	a5,a5,0x18
  102d4c:	0f000737          	lui	a4,0xf000
  102d50:	8ff9                	and	a5,a5,a4
  102d52:	8d5d                	or	a0,a0,a5
  102d54:	001007b7          	lui	a5,0x100
  102d58:	8d5d                	or	a0,a0,a5
  102d5a:	c62a                	sw	a0,12(sp)
  102d5c:	6018                	ld	a4,0(s0)
  102d5e:	02074783          	lbu	a5,32(a4) # f000020 <_partition_rtos_stack_top+0xee7b210>
  102d62:	cbb1                	beqz	a5,102db6 <engine_aes_op_mode_normal+0x12c>
  102d64:	5350                	lw	a2,36(a4)
  102d66:	6685                	lui	a3,0x1
  102d68:	06a1                	addi	a3,a3,8
  102d6a:	06c6ec63          	bltu	a3,a2,102de2 <engine_aes_op_mode_normal+0x158>
  102d6e:	5714                	lw	a3,40(a4)
  102d70:	6785                	lui	a5,0x1
  102d72:	079d                	addi	a5,a5,7
  102d74:	06d7fa63          	bleu	a3,a5,102de8 <engine_aes_op_mode_normal+0x15e>
  102d78:	6785                	lui	a5,0x1
  102d7a:	27a1                	addiw	a5,a5,8
  102d7c:	9f91                	subw	a5,a5,a2
  102d7e:	4f10                	lw	a2,24(a4)
  102d80:	fff7c693          	not	a3,a5
  102d84:	2681                	sext.w	a3,a3
  102d86:	06c6e463          	bltu	a3,a2,102dee <engine_aes_op_mode_normal+0x164>
  102d8a:	9fb1                	addw	a5,a5,a2
  102d8c:	a03d                	j	102dba <engine_aes_op_mode_normal+0x130>
  102d8e:	6705                	lui	a4,0x1
  102d90:	0711                	addi	a4,a4,4
  102d92:	bf9d                	j	102d08 <engine_aes_op_mode_normal+0x7e>
  102d94:	6705                	lui	a4,0x1
  102d96:	0711                	addi	a4,a4,4
  102d98:	bf85                	j	102d08 <engine_aes_op_mode_normal+0x7e>
  102d9a:	6705                	lui	a4,0x1
  102d9c:	0711                	addi	a4,a4,4
  102d9e:	b7ad                	j	102d08 <engine_aes_op_mode_normal+0x7e>
  102da0:	0070                	addi	a2,sp,12
  102da2:	85ca                	mv	a1,s2
  102da4:	8522                	mv	a0,s0
  102da6:	c1aff0ef          	jal	ra,1021c0 <engine_aes_set_op_mode_decrypt_crypto_config>
  102daa:	2501                	sext.w	a0,a0
  102dac:	0f000793          	li	a5,240
  102db0:	02f51263          	bne	a0,a5,102dd4 <engine_aes_op_mode_normal+0x14a>
  102db4:	bfb5                	j	102d30 <engine_aes_op_mode_normal+0xa6>
  102db6:	6785                	lui	a5,0x1
  102db8:	07a1                	addi	a5,a5,8
  102dba:	6718                	ld	a4,8(a4)
  102dbc:	6b18                	ld	a4,16(a4)
  102dbe:	1782                	slli	a5,a5,0x20
  102dc0:	9381                	srli	a5,a5,0x20
  102dc2:	97ba                	add	a5,a5,a4
  102dc4:	1782                	slli	a5,a5,0x20
  102dc6:	9381                	srli	a5,a5,0x20
  102dc8:	c388                	sw	a0,0(a5)
  102dca:	85ca                	mv	a1,s2
  102dcc:	8522                	mv	a0,s0
  102dce:	025010ef          	jal	ra,1045f2 <engine_aes_op_mode_write_linear_counter>
  102dd2:	2501                	sext.w	a0,a0
  102dd4:	70e2                	ld	ra,56(sp)
  102dd6:	7442                	ld	s0,48(sp)
  102dd8:	74a2                	ld	s1,40(sp)
  102dda:	7902                	ld	s2,32(sp)
  102ddc:	69e2                	ld	s3,24(sp)
  102dde:	6121                	addi	sp,sp,64
  102de0:	8082                	ret
  102de2:	6785                	lui	a5,0x1
  102de4:	07a1                	addi	a5,a5,8
  102de6:	bfd1                	j	102dba <engine_aes_op_mode_normal+0x130>
  102de8:	6785                	lui	a5,0x1
  102dea:	07a1                	addi	a5,a5,8
  102dec:	b7f9                	j	102dba <engine_aes_op_mode_normal+0x130>
  102dee:	6785                	lui	a5,0x1
  102df0:	07a1                	addi	a5,a5,8
  102df2:	b7e1                	j	102dba <engine_aes_op_mode_normal+0x130>

0000000000102df4 <engine_aes_op_mode_gcm>:
  102df4:	1141                	addi	sp,sp,-16
  102df6:	e406                	sd	ra,8(sp)
  102df8:	87ba                	mv	a5,a4
  102dfa:	01452803          	lw	a6,20(a0)
  102dfe:	00100737          	lui	a4,0x100
  102e02:	00e87833          	and	a6,a6,a4
  102e06:	00080963          	beqz	a6,102e18 <engine_aes_op_mode_gcm+0x24>
  102e0a:	470d                	li	a4,3
  102e0c:	e7fff0ef          	jal	ra,102c8a <engine_aes_op_mode_normal>
  102e10:	2501                	sext.w	a0,a0
  102e12:	60a2                	ld	ra,8(sp)
  102e14:	0141                	addi	sp,sp,16
  102e16:	8082                	ret
  102e18:	4711                	li	a4,4
  102e1a:	bfcd                	j	102e0c <engine_aes_op_mode_gcm+0x18>

0000000000102e1c <setup_aes_op_mode_locked>:
  102e1c:	7179                	addi	sp,sp,-48
  102e1e:	f406                	sd	ra,40(sp)
  102e20:	f022                	sd	s0,32(sp)
  102e22:	ec26                	sd	s1,24(sp)
  102e24:	e84a                	sd	s2,16(sp)
  102e26:	e44e                	sd	s3,8(sp)
  102e28:	e052                	sd	s4,0(sp)
  102e2a:	892a                	mv	s2,a0
  102e2c:	84ae                	mv	s1,a1
  102e2e:	8a32                	mv	s4,a2
  102e30:	89b6                	mv	s3,a3
  102e32:	843a                	mv	s0,a4
  102e34:	863a                	mv	a2,a4
  102e36:	bd4ff0ef          	jal	ra,10220a <engine_aes_set_op_mode_check_args>
  102e3a:	2501                	sext.w	a0,a0
  102e3c:	0f000793          	li	a5,240
  102e40:	02f51c63          	bne	a0,a5,102e78 <setup_aes_op_mode_locked+0x5c>
  102e44:	77fd                	lui	a5,0xfffff
  102e46:	9fa5                	addw	a5,a5,s1
  102e48:	0007869b          	sext.w	a3,a5
  102e4c:	4725                	li	a4,9
  102e4e:	06d76163          	bltu	a4,a3,102eb0 <setup_aes_op_mode_locked+0x94>
  102e52:	1782                	slli	a5,a5,0x20
  102e54:	9381                	srli	a5,a5,0x20
  102e56:	078a                	slli	a5,a5,0x2
  102e58:	fffff717          	auipc	a4,0xfffff
  102e5c:	cbc70713          	addi	a4,a4,-836 # 101b14 <hw_cdev.2592+0x194>
  102e60:	97ba                	add	a5,a5,a4
  102e62:	439c                	lw	a5,0(a5)
  102e64:	97ba                	add	a5,a5,a4
  102e66:	8782                	jr	a5
  102e68:	8722                	mv	a4,s0
  102e6a:	86ce                	mv	a3,s3
  102e6c:	8652                	mv	a2,s4
  102e6e:	85a6                	mv	a1,s1
  102e70:	854a                	mv	a0,s2
  102e72:	f83ff0ef          	jal	ra,102df4 <engine_aes_op_mode_gcm>
  102e76:	2501                	sext.w	a0,a0
  102e78:	70a2                	ld	ra,40(sp)
  102e7a:	7402                	ld	s0,32(sp)
  102e7c:	64e2                	ld	s1,24(sp)
  102e7e:	6942                	ld	s2,16(sp)
  102e80:	69a2                	ld	s3,8(sp)
  102e82:	6a02                	ld	s4,0(sp)
  102e84:	6145                	addi	sp,sp,48
  102e86:	8082                	ret
  102e88:	87a2                	mv	a5,s0
  102e8a:	4701                	li	a4,0
  102e8c:	86ce                	mv	a3,s3
  102e8e:	4605                	li	a2,1
  102e90:	85a6                	mv	a1,s1
  102e92:	854a                	mv	a0,s2
  102e94:	df7ff0ef          	jal	ra,102c8a <engine_aes_op_mode_normal>
  102e98:	2501                	sext.w	a0,a0
  102e9a:	bff9                	j	102e78 <setup_aes_op_mode_locked+0x5c>
  102e9c:	87a2                	mv	a5,s0
  102e9e:	4701                	li	a4,0
  102ea0:	86ce                	mv	a3,s3
  102ea2:	8652                	mv	a2,s4
  102ea4:	85a6                	mv	a1,s1
  102ea6:	854a                	mv	a0,s2
  102ea8:	de3ff0ef          	jal	ra,102c8a <engine_aes_op_mode_normal>
  102eac:	2501                	sext.w	a0,a0
  102eae:	b7e9                	j	102e78 <setup_aes_op_mode_locked+0x5c>
  102eb0:	0f900513          	li	a0,249
  102eb4:	b7d1                	j	102e78 <setup_aes_op_mode_locked+0x5c>

0000000000102eb6 <engine_aes_set_block_count>:
  102eb6:	7139                	addi	sp,sp,-64
  102eb8:	fc06                	sd	ra,56(sp)
  102eba:	f822                	sd	s0,48(sp)
  102ebc:	f426                	sd	s1,40(sp)
  102ebe:	f04a                	sd	s2,32(sp)
  102ec0:	ec4e                	sd	s3,24(sp)
  102ec2:	08000793          	li	a5,128
  102ec6:	c23e                	sw	a5,4(sp)
  102ec8:	10050c63          	beqz	a0,102fe0 <engine_aes_set_block_count+0x12a>
  102ecc:	00f5f993          	andi	s3,a1,15
  102ed0:	10060b63          	beqz	a2,102fe6 <engine_aes_set_block_count+0x130>
  102ed4:	8932                	mv	s2,a2
  102ed6:	84aa                	mv	s1,a0
  102ed8:	0045d59b          	srliw	a1,a1,0x4
  102edc:	c62e                	sw	a1,12(sp)
  102ede:	c42e                	sw	a1,8(sp)
  102ee0:	0034                	addi	a3,sp,8
  102ee2:	0070                	addi	a2,sp,12
  102ee4:	85ce                	mv	a1,s3
  102ee6:	c24ff0ef          	jal	ra,10230a <aes_adjust_blocks>
  102eea:	0005041b          	sext.w	s0,a0
  102eee:	0f000793          	li	a5,240
  102ef2:	0cf41363          	bne	s0,a5,102fb8 <engine_aes_set_block_count+0x102>
  102ef6:	489c                	lw	a5,16(s1)
  102ef8:	6705                	lui	a4,0x1
  102efa:	0719                	addi	a4,a4,6
  102efc:	00f77d63          	bleu	a5,a4,102f16 <engine_aes_set_block_count+0x60>
  102f00:	6705                	lui	a4,0x1
  102f02:	0725                	addi	a4,a4,9
  102f04:	02e78763          	beq	a5,a4,102f32 <engine_aes_set_block_count+0x7c>
  102f08:	6709                	lui	a4,0x2
  102f0a:	0705                	addi	a4,a4,1
  102f0c:	02e78363          	beq	a5,a4,102f32 <engine_aes_set_block_count+0x7c>
  102f10:	0f200413          	li	s0,242
  102f14:	a055                	j	102fb8 <engine_aes_set_block_count+0x102>
  102f16:	6705                	lui	a4,0x1
  102f18:	0711                	addi	a4,a4,4
  102f1a:	00e7f763          	bleu	a4,a5,102f28 <engine_aes_set_block_count+0x72>
  102f1e:	777d                	lui	a4,0xfffff
  102f20:	9fb9                	addw	a5,a5,a4
  102f22:	4709                	li	a4,2
  102f24:	06f76963          	bltu	a4,a5,102f96 <engine_aes_set_block_count+0xe0>
  102f28:	00098963          	beqz	s3,102f3a <engine_aes_set_block_count+0x84>
  102f2c:	0ff00413          	li	s0,255
  102f30:	a061                	j	102fb8 <engine_aes_set_block_count+0x102>
  102f32:	004c                	addi	a1,sp,4
  102f34:	854e                	mv	a0,s3
  102f36:	bfcff0ef          	jal	ra,102332 <aes_residual_bit_count>
  102f3a:	4792                	lw	a5,4(sp)
  102f3c:	08000713          	li	a4,128
  102f40:	00e78e63          	beq	a5,a4,102f5c <engine_aes_set_block_count+0xa6>
  102f44:	4722                	lw	a4,8(sp)
  102f46:	f81006b7          	lui	a3,0xf8100
  102f4a:	16fd                	addi	a3,a3,-1
  102f4c:	8f75                	and	a4,a4,a3
  102f4e:	0147979b          	slliw	a5,a5,0x14
  102f52:	07f006b7          	lui	a3,0x7f00
  102f56:	8ff5                	and	a5,a5,a3
  102f58:	8fd9                	or	a5,a5,a4
  102f5a:	c43e                	sw	a5,8(sp)
  102f5c:	6098                	ld	a4,0(s1)
  102f5e:	46a2                	lw	a3,8(sp)
  102f60:	02074783          	lbu	a5,32(a4) # fffffffffffff020 <_partition_rtos_stack_top+0xffffffffffe7a210>
  102f64:	cf85                	beqz	a5,102f9c <engine_aes_set_block_count+0xe6>
  102f66:	534c                	lw	a1,36(a4)
  102f68:	6605                	lui	a2,0x1
  102f6a:	02c60613          	addi	a2,a2,44 # 102c <dmem_sk_size+0x2c>
  102f6e:	04b66d63          	bltu	a2,a1,102fc8 <engine_aes_set_block_count+0x112>
  102f72:	5710                	lw	a2,40(a4)
  102f74:	6785                	lui	a5,0x1
  102f76:	02b78793          	addi	a5,a5,43 # 102b <dmem_sk_size+0x2b>
  102f7a:	04c7fb63          	bleu	a2,a5,102fd0 <engine_aes_set_block_count+0x11a>
  102f7e:	6785                	lui	a5,0x1
  102f80:	02c7879b          	addiw	a5,a5,44
  102f84:	9f8d                	subw	a5,a5,a1
  102f86:	4f0c                	lw	a1,24(a4)
  102f88:	fff7c613          	not	a2,a5
  102f8c:	2601                	sext.w	a2,a2
  102f8e:	04b66563          	bltu	a2,a1,102fd8 <engine_aes_set_block_count+0x122>
  102f92:	9fad                	addw	a5,a5,a1
  102f94:	a039                	j	102fa2 <engine_aes_set_block_count+0xec>
  102f96:	0f200413          	li	s0,242
  102f9a:	a839                	j	102fb8 <engine_aes_set_block_count+0x102>
  102f9c:	6785                	lui	a5,0x1
  102f9e:	02c78793          	addi	a5,a5,44 # 102c <dmem_sk_size+0x2c>
  102fa2:	6718                	ld	a4,8(a4)
  102fa4:	6b18                	ld	a4,16(a4)
  102fa6:	1782                	slli	a5,a5,0x20
  102fa8:	9381                	srli	a5,a5,0x20
  102faa:	97ba                	add	a5,a5,a4
  102fac:	1782                	slli	a5,a5,0x20
  102fae:	9381                	srli	a5,a5,0x20
  102fb0:	c394                	sw	a3,0(a5)
  102fb2:	47b2                	lw	a5,12(sp)
  102fb4:	00f92023          	sw	a5,0(s2)
  102fb8:	8522                	mv	a0,s0
  102fba:	70e2                	ld	ra,56(sp)
  102fbc:	7442                	ld	s0,48(sp)
  102fbe:	74a2                	ld	s1,40(sp)
  102fc0:	7902                	ld	s2,32(sp)
  102fc2:	69e2                	ld	s3,24(sp)
  102fc4:	6121                	addi	sp,sp,64
  102fc6:	8082                	ret
  102fc8:	6785                	lui	a5,0x1
  102fca:	02c78793          	addi	a5,a5,44 # 102c <dmem_sk_size+0x2c>
  102fce:	bfd1                	j	102fa2 <engine_aes_set_block_count+0xec>
  102fd0:	6785                	lui	a5,0x1
  102fd2:	02c78793          	addi	a5,a5,44 # 102c <dmem_sk_size+0x2c>
  102fd6:	b7f1                	j	102fa2 <engine_aes_set_block_count+0xec>
  102fd8:	6785                	lui	a5,0x1
  102fda:	02c78793          	addi	a5,a5,44 # 102c <dmem_sk_size+0x2c>
  102fde:	b7d1                	j	102fa2 <engine_aes_set_block_count+0xec>
  102fe0:	0f900413          	li	s0,249
  102fe4:	bfd1                	j	102fb8 <engine_aes_set_block_count+0x102>
  102fe6:	0f900413          	li	s0,249
  102fea:	b7f9                	j	102fb8 <engine_aes_set_block_count+0x102>

0000000000102fec <aes_encrypt_decrypt_arg_check>:
  102fec:	c10d                	beqz	a0,10300e <aes_encrypt_decrypt_arg_check+0x22>
  102fee:	651c                	ld	a5,8(a0)
  102ff0:	c395                	beqz	a5,103014 <aes_encrypt_decrypt_arg_check+0x28>
  102ff2:	6918                	ld	a4,16(a0)
  102ff4:	c31d                	beqz	a4,10301a <aes_encrypt_decrypt_arg_check+0x2e>
  102ff6:	5118                	lw	a4,32(a0)
  102ff8:	c705                	beqz	a4,103020 <aes_encrypt_decrypt_arg_check+0x34>
  102ffa:	4bdc                	lw	a5,20(a5)
  102ffc:	00100737          	lui	a4,0x100
  103000:	8ff9                	and	a5,a5,a4
  103002:	e395                	bnez	a5,103026 <aes_encrypt_decrypt_arg_check+0x3a>
  103004:	6d1c                	ld	a5,24(a0)
  103006:	c39d                	beqz	a5,10302c <aes_encrypt_decrypt_arg_check+0x40>
  103008:	0f000513          	li	a0,240
  10300c:	8082                	ret
  10300e:	0f900513          	li	a0,249
  103012:	8082                	ret
  103014:	0f900513          	li	a0,249
  103018:	8082                	ret
  10301a:	0f900513          	li	a0,249
  10301e:	8082                	ret
  103020:	0f900513          	li	a0,249
  103024:	8082                	ret
  103026:	0f000513          	li	a0,240
  10302a:	8082                	ret
  10302c:	0f900513          	li	a0,249
  103030:	8082                	ret

0000000000103032 <aes_input_output_regs>:
  103032:	1101                	addi	sp,sp,-32
  103034:	ec06                	sd	ra,24(sp)
  103036:	e822                	sd	s0,16(sp)
  103038:	e402                	sd	zero,8(sp)
  10303a:	690c                	ld	a1,16(a0)
  10303c:	20058363          	beqz	a1,103242 <aes_input_output_regs+0x210>
  103040:	5118                	lw	a4,32(a0)
  103042:	010007b7          	lui	a5,0x1000
  103046:	17c1                	addi	a5,a5,-16
  103048:	20e7e063          	bltu	a5,a4,103248 <aes_input_output_regs+0x216>
  10304c:	651c                	ld	a5,8(a0)
  10304e:	6390                	ld	a2,0(a5)
  103050:	57fd                	li	a5,-1
  103052:	9381                	srli	a5,a5,0x20
  103054:	00b7f663          	bleu	a1,a5,103060 <aes_input_output_regs+0x2e>
  103058:	02059693          	slli	a3,a1,0x20
  10305c:	9281                	srli	a3,a3,0x20
  10305e:	a011                	j	103062 <aes_input_output_regs+0x30>
  103060:	86ae                	mv	a3,a1
  103062:	2681                	sext.w	a3,a3
  103064:	02064783          	lbu	a5,32(a2)
  103068:	cb95                	beqz	a5,10309c <aes_input_output_regs+0x6a>
  10306a:	02462803          	lw	a6,36(a2)
  10306e:	6705                	lui	a4,0x1
  103070:	0731                	addi	a4,a4,12
  103072:	09076863          	bltu	a4,a6,103102 <aes_input_output_regs+0xd0>
  103076:	5618                	lw	a4,40(a2)
  103078:	6785                	lui	a5,0x1
  10307a:	07ad                	addi	a5,a5,11
  10307c:	08e7f663          	bleu	a4,a5,103108 <aes_input_output_regs+0xd6>
  103080:	6785                	lui	a5,0x1
  103082:	27b1                	addiw	a5,a5,12
  103084:	410787bb          	subw	a5,a5,a6
  103088:	01862803          	lw	a6,24(a2)
  10308c:	fff7c713          	not	a4,a5
  103090:	2701                	sext.w	a4,a4
  103092:	07076e63          	bltu	a4,a6,10310e <aes_input_output_regs+0xdc>
  103096:	010787bb          	addw	a5,a5,a6
  10309a:	a019                	j	1030a0 <aes_input_output_regs+0x6e>
  10309c:	6785                	lui	a5,0x1
  10309e:	07b1                	addi	a5,a5,12
  1030a0:	6618                	ld	a4,8(a2)
  1030a2:	6b18                	ld	a4,16(a4)
  1030a4:	1782                	slli	a5,a5,0x20
  1030a6:	9381                	srli	a5,a5,0x20
  1030a8:	97ba                	add	a5,a5,a4
  1030aa:	1782                	slli	a5,a5,0x20
  1030ac:	9381                	srli	a5,a5,0x20
  1030ae:	c394                	sw	a3,0(a5)
  1030b0:	511c                	lw	a5,32(a0)
  1030b2:	01000737          	lui	a4,0x1000
  1030b6:	177d                	addi	a4,a4,-1
  1030b8:	8ff9                	and	a5,a5,a4
  1030ba:	4205d713          	srai	a4,a1,0x20
  1030be:	0187171b          	slliw	a4,a4,0x18
  1030c2:	8fd9                	or	a5,a5,a4
  1030c4:	2781                	sext.w	a5,a5
  1030c6:	6518                	ld	a4,8(a0)
  1030c8:	6314                	ld	a3,0(a4)
  1030ca:	0206c703          	lbu	a4,32(a3) # 7f00020 <_partition_rtos_stack_top+0x7d7b210>
  1030ce:	c339                	beqz	a4,103114 <aes_input_output_regs+0xe2>
  1030d0:	0246a803          	lw	a6,36(a3)
  1030d4:	6605                	lui	a2,0x1
  1030d6:	0641                	addi	a2,a2,16
  1030d8:	07066563          	bltu	a2,a6,103142 <aes_input_output_regs+0x110>
  1030dc:	5690                	lw	a2,40(a3)
  1030de:	6705                	lui	a4,0x1
  1030e0:	073d                	addi	a4,a4,15
  1030e2:	06c77363          	bleu	a2,a4,103148 <aes_input_output_regs+0x116>
  1030e6:	6705                	lui	a4,0x1
  1030e8:	2741                	addiw	a4,a4,16
  1030ea:	4107073b          	subw	a4,a4,a6
  1030ee:	0186a803          	lw	a6,24(a3)
  1030f2:	fff74613          	not	a2,a4
  1030f6:	2601                	sext.w	a2,a2
  1030f8:	05066b63          	bltu	a2,a6,10314e <aes_input_output_regs+0x11c>
  1030fc:	0107073b          	addw	a4,a4,a6
  103100:	a821                	j	103118 <aes_input_output_regs+0xe6>
  103102:	6785                	lui	a5,0x1
  103104:	07b1                	addi	a5,a5,12
  103106:	bf69                	j	1030a0 <aes_input_output_regs+0x6e>
  103108:	6785                	lui	a5,0x1
  10310a:	07b1                	addi	a5,a5,12
  10310c:	bf51                	j	1030a0 <aes_input_output_regs+0x6e>
  10310e:	6785                	lui	a5,0x1
  103110:	07b1                	addi	a5,a5,12
  103112:	b779                	j	1030a0 <aes_input_output_regs+0x6e>
  103114:	6705                	lui	a4,0x1
  103116:	0741                	addi	a4,a4,16
  103118:	842a                	mv	s0,a0
  10311a:	6694                	ld	a3,8(a3)
  10311c:	6a94                	ld	a3,16(a3)
  10311e:	1702                	slli	a4,a4,0x20
  103120:	9301                	srli	a4,a4,0x20
  103122:	9736                	add	a4,a4,a3
  103124:	1702                	slli	a4,a4,0x20
  103126:	9301                	srli	a4,a4,0x20
  103128:	c31c                	sw	a5,0(a4)
  10312a:	6d1c                	ld	a5,24(a0)
  10312c:	c785                	beqz	a5,103154 <aes_input_output_regs+0x122>
  10312e:	0030                	addi	a2,sp,8
  103130:	a0eff0ef          	jal	ra,10233e <aes_output_paddr>
  103134:	2501                	sext.w	a0,a0
  103136:	0f000793          	li	a5,240
  10313a:	0ef51763          	bne	a0,a5,103228 <aes_input_output_regs+0x1f6>
  10313e:	501c                	lw	a5,32(s0)
  103140:	a829                	j	10315a <aes_input_output_regs+0x128>
  103142:	6705                	lui	a4,0x1
  103144:	0741                	addi	a4,a4,16
  103146:	bfc9                	j	103118 <aes_input_output_regs+0xe6>
  103148:	6705                	lui	a4,0x1
  10314a:	0741                	addi	a4,a4,16
  10314c:	b7f1                	j	103118 <aes_input_output_regs+0xe6>
  10314e:	6705                	lui	a4,0x1
  103150:	0741                	addi	a4,a4,16
  103152:	b7d9                	j	103118 <aes_input_output_regs+0xe6>
  103154:	4781                	li	a5,0
  103156:	0f000513          	li	a0,240
  10315a:	6418                	ld	a4,8(s0)
  10315c:	630c                	ld	a1,0(a4)
  10315e:	6722                	ld	a4,8(sp)
  103160:	56fd                	li	a3,-1
  103162:	9281                	srli	a3,a3,0x20
  103164:	00e6f463          	bleu	a4,a3,10316c <aes_input_output_regs+0x13a>
  103168:	1702                	slli	a4,a4,0x20
  10316a:	9301                	srli	a4,a4,0x20
  10316c:	0007061b          	sext.w	a2,a4
  103170:	0205c703          	lbu	a4,32(a1) # 1020 <dmem_sk_size+0x20>
  103174:	cb15                	beqz	a4,1031a8 <aes_input_output_regs+0x176>
  103176:	0245a803          	lw	a6,36(a1)
  10317a:	6685                	lui	a3,0x1
  10317c:	06d1                	addi	a3,a3,20
  10317e:	0906e263          	bltu	a3,a6,103202 <aes_input_output_regs+0x1d0>
  103182:	5594                	lw	a3,40(a1)
  103184:	6705                	lui	a4,0x1
  103186:	074d                	addi	a4,a4,19
  103188:	08d77063          	bleu	a3,a4,103208 <aes_input_output_regs+0x1d6>
  10318c:	6705                	lui	a4,0x1
  10318e:	2751                	addiw	a4,a4,20
  103190:	4107073b          	subw	a4,a4,a6
  103194:	0185a803          	lw	a6,24(a1)
  103198:	fff74693          	not	a3,a4
  10319c:	2681                	sext.w	a3,a3
  10319e:	0706e863          	bltu	a3,a6,10320e <aes_input_output_regs+0x1dc>
  1031a2:	0107073b          	addw	a4,a4,a6
  1031a6:	a019                	j	1031ac <aes_input_output_regs+0x17a>
  1031a8:	6705                	lui	a4,0x1
  1031aa:	0751                	addi	a4,a4,20
  1031ac:	6594                	ld	a3,8(a1)
  1031ae:	6a94                	ld	a3,16(a3)
  1031b0:	1702                	slli	a4,a4,0x20
  1031b2:	9301                	srli	a4,a4,0x20
  1031b4:	9736                	add	a4,a4,a3
  1031b6:	1702                	slli	a4,a4,0x20
  1031b8:	9301                	srli	a4,a4,0x20
  1031ba:	c310                	sw	a2,0(a4)
  1031bc:	01000737          	lui	a4,0x1000
  1031c0:	177d                	addi	a4,a4,-1
  1031c2:	8ff9                	and	a5,a5,a4
  1031c4:	4732                	lw	a4,12(sp)
  1031c6:	0187171b          	slliw	a4,a4,0x18
  1031ca:	8fd9                	or	a5,a5,a4
  1031cc:	2781                	sext.w	a5,a5
  1031ce:	6418                	ld	a4,8(s0)
  1031d0:	6314                	ld	a3,0(a4)
  1031d2:	0206c703          	lbu	a4,32(a3) # 1020 <dmem_sk_size+0x20>
  1031d6:	cf1d                	beqz	a4,103214 <aes_input_output_regs+0x1e2>
  1031d8:	52cc                	lw	a1,36(a3)
  1031da:	6605                	lui	a2,0x1
  1031dc:	0661                	addi	a2,a2,24
  1031de:	04b66963          	bltu	a2,a1,103230 <aes_input_output_regs+0x1fe>
  1031e2:	5690                	lw	a2,40(a3)
  1031e4:	6705                	lui	a4,0x1
  1031e6:	075d                	addi	a4,a4,23
  1031e8:	04c77763          	bleu	a2,a4,103236 <aes_input_output_regs+0x204>
  1031ec:	6705                	lui	a4,0x1
  1031ee:	2761                	addiw	a4,a4,24
  1031f0:	9f0d                	subw	a4,a4,a1
  1031f2:	4e8c                	lw	a1,24(a3)
  1031f4:	fff74613          	not	a2,a4
  1031f8:	2601                	sext.w	a2,a2
  1031fa:	04b66163          	bltu	a2,a1,10323c <aes_input_output_regs+0x20a>
  1031fe:	9f2d                	addw	a4,a4,a1
  103200:	a821                	j	103218 <aes_input_output_regs+0x1e6>
  103202:	6705                	lui	a4,0x1
  103204:	0751                	addi	a4,a4,20
  103206:	b75d                	j	1031ac <aes_input_output_regs+0x17a>
  103208:	6705                	lui	a4,0x1
  10320a:	0751                	addi	a4,a4,20
  10320c:	b745                	j	1031ac <aes_input_output_regs+0x17a>
  10320e:	6705                	lui	a4,0x1
  103210:	0751                	addi	a4,a4,20
  103212:	bf69                	j	1031ac <aes_input_output_regs+0x17a>
  103214:	6705                	lui	a4,0x1
  103216:	0761                	addi	a4,a4,24
  103218:	6694                	ld	a3,8(a3)
  10321a:	6a94                	ld	a3,16(a3)
  10321c:	1702                	slli	a4,a4,0x20
  10321e:	9301                	srli	a4,a4,0x20
  103220:	9736                	add	a4,a4,a3
  103222:	1702                	slli	a4,a4,0x20
  103224:	9301                	srli	a4,a4,0x20
  103226:	c31c                	sw	a5,0(a4)
  103228:	60e2                	ld	ra,24(sp)
  10322a:	6442                	ld	s0,16(sp)
  10322c:	6105                	addi	sp,sp,32
  10322e:	8082                	ret
  103230:	6705                	lui	a4,0x1
  103232:	0761                	addi	a4,a4,24
  103234:	b7d5                	j	103218 <aes_input_output_regs+0x1e6>
  103236:	6705                	lui	a4,0x1
  103238:	0761                	addi	a4,a4,24
  10323a:	bff9                	j	103218 <aes_input_output_regs+0x1e6>
  10323c:	6705                	lui	a4,0x1
  10323e:	0761                	addi	a4,a4,24
  103240:	bfe1                	j	103218 <aes_input_output_regs+0x1e6>
  103242:	0f900513          	li	a0,249
  103246:	b7cd                	j	103228 <aes_input_output_regs+0x1f6>
  103248:	0f400513          	li	a0,244
  10324c:	bff1                	j	103228 <aes_input_output_regs+0x1f6>

000000000010324e <aes_enc_dec_engine_setup_locked>:
  10324e:	1101                	addi	sp,sp,-32
  103250:	ec06                	sd	ra,24(sp)
  103252:	e822                	sd	s0,16(sp)
  103254:	e426                	sd	s1,8(sp)
  103256:	842a                	mv	s0,a0
  103258:	84ae                	mv	s1,a1
  10325a:	6508                	ld	a0,8(a0)
  10325c:	4701                	li	a4,0
  10325e:	01a54683          	lbu	a3,26(a0)
  103262:	01854603          	lbu	a2,24(a0)
  103266:	490c                	lw	a1,16(a0)
  103268:	bb5ff0ef          	jal	ra,102e1c <setup_aes_op_mode_locked>
  10326c:	2501                	sext.w	a0,a0
  10326e:	0f000793          	li	a5,240
  103272:	00f50763          	beq	a0,a5,103280 <aes_enc_dec_engine_setup_locked+0x32>
  103276:	60e2                	ld	ra,24(sp)
  103278:	6442                	ld	s0,16(sp)
  10327a:	64a2                	ld	s1,8(sp)
  10327c:	6105                	addi	sp,sp,32
  10327e:	8082                	ret
  103280:	02840613          	addi	a2,s0,40
  103284:	500c                	lw	a1,32(s0)
  103286:	6408                	ld	a0,8(s0)
  103288:	c2fff0ef          	jal	ra,102eb6 <engine_aes_set_block_count>
  10328c:	2501                	sext.w	a0,a0
  10328e:	0f000793          	li	a5,240
  103292:	fef512e3          	bne	a0,a5,103276 <aes_enc_dec_engine_setup_locked+0x28>
  103296:	8522                	mv	a0,s0
  103298:	2a8010ef          	jal	ra,104540 <do_aes_counter_overflow_check>
  10329c:	2501                	sext.w	a0,a0
  10329e:	0f000793          	li	a5,240
  1032a2:	fcf51ae3          	bne	a0,a5,103276 <aes_enc_dec_engine_setup_locked+0x28>
  1032a6:	6408                	ld	a0,8(s0)
  1032a8:	4918                	lw	a4,16(a0)
  1032aa:	6785                	lui	a5,0x1
  1032ac:	07a5                	addi	a5,a5,9
  1032ae:	00f70763          	beq	a4,a5,1032bc <aes_enc_dec_engine_setup_locked+0x6e>
  1032b2:	8522                	mv	a0,s0
  1032b4:	d7fff0ef          	jal	ra,103032 <aes_input_output_regs>
  1032b8:	2501                	sext.w	a0,a0
  1032ba:	bf75                	j	103276 <aes_enc_dec_engine_setup_locked+0x28>
  1032bc:	85a6                	mv	a1,s1
  1032be:	576000ef          	jal	ra,103834 <eng_aes_gcm_get_operation_preset>
  1032c2:	2501                	sext.w	a0,a0
  1032c4:	0f000793          	li	a5,240
  1032c8:	faf517e3          	bne	a0,a5,103276 <aes_enc_dec_engine_setup_locked+0x28>
  1032cc:	b7dd                	j	1032b2 <aes_enc_dec_engine_setup_locked+0x64>

00000000001032ce <aes_enc_dec_engine_start_locked>:
  1032ce:	7179                	addi	sp,sp,-48
  1032d0:	f406                	sd	ra,40(sp)
  1032d2:	f022                	sd	s0,32(sp)
  1032d4:	ec26                	sd	s1,24(sp)
  1032d6:	84aa                	mv	s1,a0
  1032d8:	c602                	sw	zero,12(sp)
  1032da:	006c                	addi	a1,sp,12
  1032dc:	f73ff0ef          	jal	ra,10324e <aes_enc_dec_engine_setup_locked>
  1032e0:	0005041b          	sext.w	s0,a0
  1032e4:	0f000793          	li	a5,240
  1032e8:	00f40863          	beq	s0,a5,1032f8 <aes_enc_dec_engine_start_locked+0x2a>
  1032ec:	8522                	mv	a0,s0
  1032ee:	70a2                	ld	ra,40(sp)
  1032f0:	7402                	ld	s0,32(sp)
  1032f2:	64e2                	ld	s1,24(sp)
  1032f4:	6145                	addi	sp,sp,48
  1032f6:	8082                	ret
  1032f8:	649c                	ld	a5,8(s1)
  1032fa:	ffffe597          	auipc	a1,0xffffe
  1032fe:	6fe58593          	addi	a1,a1,1790 # 1019f8 <hw_cdev.2592+0x78>
  103302:	6388                	ld	a0,0(a5)
  103304:	15e010ef          	jal	ra,104462 <se_engine_get_err_status>
  103308:	2501                	sext.w	a0,a0
  10330a:	0f000793          	li	a5,240
  10330e:	00f50363          	beq	a0,a5,103314 <aes_enc_dec_engine_start_locked+0x46>
  103312:	842a                	mv	s0,a0
  103314:	0f000793          	li	a5,240
  103318:	fcf41ae3          	bne	s0,a5,1032ec <aes_enc_dec_engine_start_locked+0x1e>
  10331c:	649c                	ld	a5,8(s1)
  10331e:	45b2                	lw	a1,12(sp)
  103320:	6388                	ld	a0,0(a5)
  103322:	066010ef          	jal	ra,104388 <tegra_start_se0_operation_locked>
  103326:	0005041b          	sext.w	s0,a0
  10332a:	0f000793          	li	a5,240
  10332e:	faf41fe3          	bne	s0,a5,1032ec <aes_enc_dec_engine_start_locked+0x1e>
  103332:	4785                	li	a5,1
  103334:	02f48a23          	sb	a5,52(s1)
  103338:	bf55                	j	1032ec <aes_enc_dec_engine_start_locked+0x1e>

000000000010333a <aes_encrypt_decrypt_locked_async_start>:
  10333a:	1141                	addi	sp,sp,-16
  10333c:	e406                	sd	ra,8(sp)
  10333e:	e022                	sd	s0,0(sp)
  103340:	842a                	mv	s0,a0
  103342:	cabff0ef          	jal	ra,102fec <aes_encrypt_decrypt_arg_check>
  103346:	2501                	sext.w	a0,a0
  103348:	0f000793          	li	a5,240
  10334c:	04f51763          	bne	a0,a5,10339a <aes_encrypt_decrypt_locked_async_start+0x60>
  103350:	03444783          	lbu	a5,52(s0)
  103354:	e3b5                	bnez	a5,1033b8 <aes_encrypt_decrypt_locked_async_start+0x7e>
  103356:	020409a3          	sb	zero,51(s0)
  10335a:	5018                	lw	a4,32(s0)
  10335c:	010007b7          	lui	a5,0x1000
  103360:	17c1                	addi	a5,a5,-16
  103362:	04e7ee63          	bltu	a5,a4,1033be <aes_encrypt_decrypt_locked_async_start+0x84>
  103366:	d458                	sw	a4,44(s0)
  103368:	641c                	ld	a5,8(s0)
  10336a:	0187c683          	lbu	a3,24(a5) # 1000018 <_partition_rtos_stack_top+0xe7b208>
  10336e:	ca81                	beqz	a3,10337e <aes_encrypt_decrypt_locked_async_start+0x44>
  103370:	4b94                	lw	a3,16(a5)
  103372:	77fd                	lui	a5,0xfffff
  103374:	37f1                	addiw	a5,a5,-4
  103376:	9fb5                	addw	a5,a5,a3
  103378:	4685                	li	a3,1
  10337a:	02f6f463          	bleu	a5,a3,1033a2 <aes_encrypt_decrypt_locked_async_start+0x68>
  10337e:	545c                	lw	a5,44(s0)
  103380:	03f7879b          	addiw	a5,a5,63
  103384:	fc07f793          	andi	a5,a5,-64
  103388:	d45c                	sw	a5,44(s0)
  10338a:	8522                	mv	a0,s0
  10338c:	fd3fe0ef          	jal	ra,10235e <aes_enc_dec_algo_setup>
  103390:	2501                	sext.w	a0,a0
  103392:	0f000793          	li	a5,240
  103396:	00f50c63          	beq	a0,a5,1033ae <aes_encrypt_decrypt_locked_async_start+0x74>
  10339a:	60a2                	ld	ra,8(sp)
  10339c:	6402                	ld	s0,0(sp)
  10339e:	0141                	addi	sp,sp,16
  1033a0:	8082                	ret
  1033a2:	00f77793          	andi	a5,a4,15
  1033a6:	9f1d                	subw	a4,a4,a5
  1033a8:	2741                	addiw	a4,a4,16
  1033aa:	d458                	sw	a4,44(s0)
  1033ac:	bfc9                	j	10337e <aes_encrypt_decrypt_locked_async_start+0x44>
  1033ae:	8522                	mv	a0,s0
  1033b0:	f1fff0ef          	jal	ra,1032ce <aes_enc_dec_engine_start_locked>
  1033b4:	2501                	sext.w	a0,a0
  1033b6:	b7d5                	j	10339a <aes_encrypt_decrypt_locked_async_start+0x60>
  1033b8:	0ff00513          	li	a0,255
  1033bc:	bff9                	j	10339a <aes_encrypt_decrypt_locked_async_start+0x60>
  1033be:	0f400513          	li	a0,244
  1033c2:	bfe1                	j	10339a <aes_encrypt_decrypt_locked_async_start+0x60>

00000000001033c4 <engine_aes_setup_key_iv>:
  1033c4:	1141                	addi	sp,sp,-16
  1033c6:	e406                	sd	ra,8(sp)
  1033c8:	e022                	sd	s0,0(sp)
  1033ca:	842a                	mv	s0,a0
  1033cc:	6508                	ld	a0,8(a0)
  1033ce:	495c                	lw	a5,20(a0)
  1033d0:	8b85                	andi	a5,a5,1
  1033d2:	c3a1                	beqz	a5,103412 <engine_aes_setup_key_iv+0x4e>
  1033d4:	4785                	li	a5,1
  1033d6:	02f40923          	sb	a5,50(s0)
  1033da:	0f000513          	li	a0,240
  1033de:	6414                	ld	a3,8(s0)
  1033e0:	4adc                	lw	a5,20(a3)
  1033e2:	8b89                	andi	a5,a5,2
  1033e4:	c781                	beqz	a5,1033ec <engine_aes_setup_key_iv+0x28>
  1033e6:	4785                	li	a5,1
  1033e8:	02f40823          	sb	a5,48(s0)
  1033ec:	4a98                	lw	a4,16(a3)
  1033ee:	6785                	lui	a5,0x1
  1033f0:	0795                	addi	a5,a5,5
  1033f2:	02f70f63          	beq	a4,a5,103430 <engine_aes_setup_key_iv+0x6c>
  1033f6:	6785                	lui	a5,0x1
  1033f8:	0785                	addi	a5,a5,1
  1033fa:	04f70163          	beq	a4,a5,10343c <engine_aes_setup_key_iv+0x78>
  1033fe:	6785                	lui	a5,0x1
  103400:	078d                	addi	a5,a5,3
  103402:	02f70f63          	beq	a4,a5,103440 <engine_aes_setup_key_iv+0x7c>
  103406:	6785                	lui	a5,0x1
  103408:	0799                	addi	a5,a5,6
  10340a:	02f70163          	beq	a4,a5,10342c <engine_aes_setup_key_iv+0x68>
  10340e:	4781                	li	a5,0
  103410:	a00d                	j	103432 <engine_aes_setup_key_iv+0x6e>
  103412:	751c                	ld	a5,40(a0)
  103414:	cf8d                	beqz	a5,10344e <engine_aes_setup_key_iv+0x8a>
  103416:	4785                	li	a5,1
  103418:	02f408a3          	sb	a5,49(s0)
  10341c:	839ff0ef          	jal	ra,102c54 <engine_aes_write_keyslot>
  103420:	2501                	sext.w	a0,a0
  103422:	0f000793          	li	a5,240
  103426:	00f51763          	bne	a0,a5,103434 <engine_aes_setup_key_iv+0x70>
  10342a:	bf55                	j	1033de <engine_aes_setup_key_iv+0x1a>
  10342c:	4785                	li	a5,1
  10342e:	a011                	j	103432 <engine_aes_setup_key_iv+0x6e>
  103430:	4785                	li	a5,1
  103432:	eb89                	bnez	a5,103444 <engine_aes_setup_key_iv+0x80>
  103434:	60a2                	ld	ra,8(sp)
  103436:	6402                	ld	s0,0(sp)
  103438:	0141                	addi	sp,sp,16
  10343a:	8082                	ret
  10343c:	4785                	li	a5,1
  10343e:	bfd5                	j	103432 <engine_aes_setup_key_iv+0x6e>
  103440:	4785                	li	a5,1
  103442:	bfc5                	j	103432 <engine_aes_setup_key_iv+0x6e>
  103444:	8536                	mv	a0,a3
  103446:	884ff0ef          	jal	ra,1024ca <engine_aes_write_iv>
  10344a:	2501                	sext.w	a0,a0
  10344c:	b7e5                	j	103434 <engine_aes_setup_key_iv+0x70>
  10344e:	0f900513          	li	a0,249
  103452:	b7cd                	j	103434 <engine_aes_setup_key_iv+0x70>

0000000000103454 <aes_process_locked_async_start>:
  103454:	c921                	beqz	a0,1034a4 <aes_process_locked_async_start+0x50>
  103456:	651c                	ld	a5,8(a0)
  103458:	cba9                	beqz	a5,1034aa <aes_process_locked_async_start+0x56>
  10345a:	1141                	addi	sp,sp,-16
  10345c:	e406                	sd	ra,8(sp)
  10345e:	e022                	sd	s0,0(sp)
  103460:	842a                	mv	s0,a0
  103462:	fa7fe0ef          	jal	ra,102408 <engine_aes_process_arg_check>
  103466:	2501                	sext.w	a0,a0
  103468:	0f000793          	li	a5,240
  10346c:	02f51363          	bne	a0,a5,103492 <aes_process_locked_async_start+0x3e>
  103470:	03444783          	lbu	a5,52(s0)
  103474:	ef95                	bnez	a5,1034b0 <aes_process_locked_async_start+0x5c>
  103476:	5018                	lw	a4,32(s0)
  103478:	010007b7          	lui	a5,0x1000
  10347c:	17c1                	addi	a5,a5,-16
  10347e:	02e7ec63          	bltu	a5,a4,1034b6 <aes_process_locked_async_start+0x62>
  103482:	8522                	mv	a0,s0
  103484:	f41ff0ef          	jal	ra,1033c4 <engine_aes_setup_key_iv>
  103488:	2501                	sext.w	a0,a0
  10348a:	0f000793          	li	a5,240
  10348e:	00f50663          	beq	a0,a5,10349a <aes_process_locked_async_start+0x46>
  103492:	60a2                	ld	ra,8(sp)
  103494:	6402                	ld	s0,0(sp)
  103496:	0141                	addi	sp,sp,16
  103498:	8082                	ret
  10349a:	8522                	mv	a0,s0
  10349c:	e9fff0ef          	jal	ra,10333a <aes_encrypt_decrypt_locked_async_start>
  1034a0:	2501                	sext.w	a0,a0
  1034a2:	bfc5                	j	103492 <aes_process_locked_async_start+0x3e>
  1034a4:	0f900513          	li	a0,249
  1034a8:	8082                	ret
  1034aa:	0f900513          	li	a0,249
  1034ae:	8082                	ret
  1034b0:	0ff00513          	li	a0,255
  1034b4:	bff9                	j	103492 <aes_process_locked_async_start+0x3e>
  1034b6:	0f400513          	li	a0,244
  1034ba:	bfe1                	j	103492 <aes_process_locked_async_start+0x3e>

00000000001034bc <tegra_se_clear_aes_keyslot_locked>:
  1034bc:	7179                	addi	sp,sp,-48
  1034be:	f406                	sd	ra,40(sp)
  1034c0:	f022                	sd	s0,32(sp)
  1034c2:	ec26                	sd	s1,24(sp)
  1034c4:	e84a                	sd	s2,16(sp)
  1034c6:	e44e                	sd	s3,8(sp)
  1034c8:	84aa                	mv	s1,a0
  1034ca:	892e                	mv	s2,a1
  1034cc:	89b2                	mv	s3,a2
  1034ce:	ffffe597          	auipc	a1,0xffffe
  1034d2:	53a58593          	addi	a1,a1,1338 # 101a08 <hw_cdev.2592+0x88>
  1034d6:	78d000ef          	jal	ra,104462 <se_engine_get_err_status>
  1034da:	0005041b          	sext.w	s0,a0
  1034de:	0f000793          	li	a5,240
  1034e2:	00f40a63          	beq	s0,a5,1034f6 <tegra_se_clear_aes_keyslot_locked+0x3a>
  1034e6:	8522                	mv	a0,s0
  1034e8:	70a2                	ld	ra,40(sp)
  1034ea:	7402                	ld	s0,32(sp)
  1034ec:	64e2                	ld	s1,24(sp)
  1034ee:	6942                	ld	s2,16(sp)
  1034f0:	69a2                	ld	s3,8(sp)
  1034f2:	6145                	addi	sp,sp,48
  1034f4:	8082                	ret
  1034f6:	48dc                	lw	a5,20(s1)
  1034f8:	8b85                	andi	a5,a5,1
  1034fa:	cfa1                	beqz	a5,103552 <tegra_se_clear_aes_keyslot_locked+0x96>
  1034fc:	6705                	lui	a4,0x1
  1034fe:	0715                	addi	a4,a4,5
  103500:	4681                	li	a3,0
  103502:	10000613          	li	a2,256
  103506:	85ca                	mv	a1,s2
  103508:	8526                	mv	a0,s1
  10350a:	f24ff0ef          	jal	ra,102c2e <aes_set_key_locked>
  10350e:	0005041b          	sext.w	s0,a0
  103512:	0f000793          	li	a5,240
  103516:	fcf418e3          	bne	s0,a5,1034e6 <tegra_se_clear_aes_keyslot_locked+0x2a>
  10351a:	00098c63          	beqz	s3,103532 <tegra_se_clear_aes_keyslot_locked+0x76>
  10351e:	85ca                	mv	a1,s2
  103520:	8526                	mv	a0,s1
  103522:	fbffe0ef          	jal	ra,1024e0 <engine_aes_clear_iv>
  103526:	0005041b          	sext.w	s0,a0
  10352a:	0f000793          	li	a5,240
  10352e:	faf41ce3          	bne	s0,a5,1034e6 <tegra_se_clear_aes_keyslot_locked+0x2a>
  103532:	ffffe597          	auipc	a1,0xffffe
  103536:	4ee58593          	addi	a1,a1,1262 # 101a20 <hw_cdev.2592+0xa0>
  10353a:	8526                	mv	a0,s1
  10353c:	727000ef          	jal	ra,104462 <se_engine_get_err_status>
  103540:	2501                	sext.w	a0,a0
  103542:	0f000793          	li	a5,240
  103546:	00f50463          	beq	a0,a5,10354e <tegra_se_clear_aes_keyslot_locked+0x92>
  10354a:	842a                	mv	s0,a0
  10354c:	bf69                	j	1034e6 <tegra_se_clear_aes_keyslot_locked+0x2a>
  10354e:	8522                	mv	a0,s0
  103550:	bfed                	j	10354a <tegra_se_clear_aes_keyslot_locked+0x8e>
  103552:	0f900413          	li	s0,249
  103556:	bf41                	j	1034e6 <tegra_se_clear_aes_keyslot_locked+0x2a>

0000000000103558 <aes_ac_clear_keyslot>:
  103558:	1141                	addi	sp,sp,-16
  10355a:	e406                	sd	ra,8(sp)
  10355c:	e022                	sd	s0,0(sp)
  10355e:	842e                	mv	s0,a1
  103560:	6518                	ld	a4,8(a0)
  103562:	4b5c                	lw	a5,20(a4)
  103564:	1007f793          	andi	a5,a5,256
  103568:	c799                	beqz	a5,103576 <aes_ac_clear_keyslot+0x1e>
  10356a:	0f000793          	li	a5,240
  10356e:	00f58d63          	beq	a1,a5,103588 <aes_ac_clear_keyslot+0x30>
  103572:	4781                	li	a5,0
  103574:	a011                	j	103578 <aes_ac_clear_keyslot+0x20>
  103576:	4781                	li	a5,0
  103578:	03254683          	lbu	a3,50(a0)
  10357c:	ea81                	bnez	a3,10358c <aes_ac_clear_keyslot+0x34>
  10357e:	03154683          	lbu	a3,49(a0)
  103582:	c285                	beqz	a3,1035a2 <aes_ac_clear_keyslot+0x4a>
  103584:	4685                	li	a3,1
  103586:	a021                	j	10358e <aes_ac_clear_keyslot+0x36>
  103588:	4785                	li	a5,1
  10358a:	b7fd                	j	103578 <aes_ac_clear_keyslot+0x20>
  10358c:	4685                	li	a3,1
  10358e:	c689                	beqz	a3,103598 <aes_ac_clear_keyslot+0x40>
  103590:	03054683          	lbu	a3,48(a0)
  103594:	e291                	bnez	a3,103598 <aes_ac_clear_keyslot+0x40>
  103596:	cb81                	beqz	a5,1035a6 <aes_ac_clear_keyslot+0x4e>
  103598:	8522                	mv	a0,s0
  10359a:	60a2                	ld	ra,8(sp)
  10359c:	6402                	ld	s0,0(sp)
  10359e:	0141                	addi	sp,sp,16
  1035a0:	8082                	ret
  1035a2:	4681                	li	a3,0
  1035a4:	b7ed                	j	10358e <aes_ac_clear_keyslot+0x36>
  1035a6:	4605                	li	a2,1
  1035a8:	5b4c                	lw	a1,52(a4)
  1035aa:	6308                	ld	a0,0(a4)
  1035ac:	f11ff0ef          	jal	ra,1034bc <tegra_se_clear_aes_keyslot_locked>
  1035b0:	2501                	sext.w	a0,a0
  1035b2:	0f000793          	li	a5,240
  1035b6:	fef501e3          	beq	a0,a5,103598 <aes_ac_clear_keyslot+0x40>
  1035ba:	fcf41fe3          	bne	s0,a5,103598 <aes_ac_clear_keyslot+0x40>
  1035be:	842a                	mv	s0,a0
  1035c0:	bfe1                	j	103598 <aes_ac_clear_keyslot+0x40>

00000000001035c2 <aes_process_locked_async_finish>:
  1035c2:	1141                	addi	sp,sp,-16
  1035c4:	e406                	sd	ra,8(sp)
  1035c6:	e022                	sd	s0,0(sp)
  1035c8:	842a                	mv	s0,a0
  1035ca:	f29fe0ef          	jal	ra,1024f2 <aes_encrypt_decrypt_locked_async_finish>
  1035ce:	0005059b          	sext.w	a1,a0
  1035d2:	0f000793          	li	a5,240
  1035d6:	04f59163          	bne	a1,a5,103618 <aes_process_locked_async_finish+0x56>
  1035da:	641c                	ld	a5,8(s0)
  1035dc:	00078d23          	sb	zero,26(a5) # 100001a <_partition_rtos_stack_top+0xe7b20a>
  1035e0:	6c1c                	ld	a5,24(s0)
  1035e2:	c399                	beqz	a5,1035e8 <aes_process_locked_async_finish+0x26>
  1035e4:	501c                	lw	a5,32(s0)
  1035e6:	d05c                	sw	a5,36(s0)
  1035e8:	6414                	ld	a3,8(s0)
  1035ea:	4a98                	lw	a4,16(a3)
  1035ec:	6785                	lui	a5,0x1
  1035ee:	0795                	addi	a5,a5,5
  1035f0:	02f70263          	beq	a4,a5,103614 <aes_process_locked_async_finish+0x52>
  1035f4:	6785                	lui	a5,0x1
  1035f6:	0785                	addi	a5,a5,1
  1035f8:	02f70863          	beq	a4,a5,103628 <aes_process_locked_async_finish+0x66>
  1035fc:	6785                	lui	a5,0x1
  1035fe:	078d                	addi	a5,a5,3
  103600:	02f70663          	beq	a4,a5,10362c <aes_process_locked_async_finish+0x6a>
  103604:	6785                	lui	a5,0x1
  103606:	0799                	addi	a5,a5,6
  103608:	00f70463          	beq	a4,a5,103610 <aes_process_locked_async_finish+0x4e>
  10360c:	4781                	li	a5,0
  10360e:	a021                	j	103616 <aes_process_locked_async_finish+0x54>
  103610:	4785                	li	a5,1
  103612:	a011                	j	103616 <aes_process_locked_async_finish+0x54>
  103614:	4785                	li	a5,1
  103616:	ef89                	bnez	a5,103630 <aes_process_locked_async_finish+0x6e>
  103618:	8522                	mv	a0,s0
  10361a:	f3fff0ef          	jal	ra,103558 <aes_ac_clear_keyslot>
  10361e:	2501                	sext.w	a0,a0
  103620:	60a2                	ld	ra,8(sp)
  103622:	6402                	ld	s0,0(sp)
  103624:	0141                	addi	sp,sp,16
  103626:	8082                	ret
  103628:	4785                	li	a5,1
  10362a:	b7f5                	j	103616 <aes_process_locked_async_finish+0x54>
  10362c:	4785                	li	a5,1
  10362e:	b7e5                	j	103616 <aes_process_locked_async_finish+0x54>
  103630:	06068593          	addi	a1,a3,96
  103634:	8522                	mv	a0,s0
  103636:	f1ffe0ef          	jal	ra,102554 <aes_get_updated_iv_from_memory>
  10363a:	0005059b          	sext.w	a1,a0
  10363e:	bfe9                	j	103618 <aes_process_locked_async_finish+0x56>

0000000000103640 <engine_aes_process_block_locked>:
  103640:	715d                	addi	sp,sp,-80
  103642:	e486                	sd	ra,72(sp)
  103644:	e0a2                	sd	s0,64(sp)
  103646:	e402                	sd	zero,8(sp)
  103648:	e802                	sd	zero,16(sp)
  10364a:	ec02                	sd	zero,24(sp)
  10364c:	f002                	sd	zero,32(sp)
  10364e:	f402                	sd	zero,40(sp)
  103650:	f802                	sd	zero,48(sp)
  103652:	fc02                	sd	zero,56(sp)
  103654:	c151                	beqz	a0,1036d8 <engine_aes_process_block_locked+0x98>
  103656:	611c                	ld	a5,0(a0)
  103658:	ec3e                	sd	a5,24(sp)
  10365a:	651c                	ld	a5,8(a0)
  10365c:	f03e                	sd	a5,32(sp)
  10365e:	691c                	ld	a5,16(a0)
  103660:	f43e                	sd	a5,40(sp)
  103662:	e82e                	sd	a1,16(sp)
  103664:	4998                	lw	a4,16(a1)
  103666:	6785                	lui	a5,0x1
  103668:	07a5                	addi	a5,a5,9
  10366a:	04f70963          	beq	a4,a5,1036bc <engine_aes_process_block_locked+0x7c>
  10366e:	6789                	lui	a5,0x2
  103670:	0785                	addi	a5,a5,1
  103672:	04f70363          	beq	a4,a5,1036b8 <engine_aes_process_block_locked+0x78>
  103676:	4781                	li	a5,0
  103678:	e7a1                	bnez	a5,1036c0 <engine_aes_process_block_locked+0x80>
  10367a:	0028                	addi	a0,sp,8
  10367c:	dd9ff0ef          	jal	ra,103454 <aes_process_locked_async_start>
  103680:	0005041b          	sext.w	s0,a0
  103684:	0f000793          	li	a5,240
  103688:	04f40263          	beq	s0,a5,1036cc <engine_aes_process_block_locked+0x8c>
  10368c:	0f000793          	li	a5,240
  103690:	00f40963          	beq	s0,a5,1036a2 <engine_aes_process_block_locked+0x62>
  103694:	67c2                	ld	a5,16(sp)
  103696:	c791                	beqz	a5,1036a2 <engine_aes_process_block_locked+0x62>
  103698:	0f000593          	li	a1,240
  10369c:	0028                	addi	a0,sp,8
  10369e:	ebbff0ef          	jal	ra,103558 <aes_ac_clear_keyslot>
  1036a2:	03800613          	li	a2,56
  1036a6:	4581                	li	a1,0
  1036a8:	0028                	addi	a0,sp,8
  1036aa:	660000ef          	jal	ra,103d0a <se_util_mem_set>
  1036ae:	8522                	mv	a0,s0
  1036b0:	60a6                	ld	ra,72(sp)
  1036b2:	6406                	ld	s0,64(sp)
  1036b4:	6161                	addi	sp,sp,80
  1036b6:	8082                	ret
  1036b8:	4785                	li	a5,1
  1036ba:	bf7d                	j	103678 <engine_aes_process_block_locked+0x38>
  1036bc:	4785                	li	a5,1
  1036be:	bf6d                	j	103678 <engine_aes_process_block_locked+0x38>
  1036c0:	0028                	addi	a0,sp,8
  1036c2:	5ac000ef          	jal	ra,103c6e <eng_aes_gcm_process_block_locked>
  1036c6:	0005041b          	sext.w	s0,a0
  1036ca:	b7c9                	j	10368c <engine_aes_process_block_locked+0x4c>
  1036cc:	0028                	addi	a0,sp,8
  1036ce:	ef5ff0ef          	jal	ra,1035c2 <aes_process_locked_async_finish>
  1036d2:	0005041b          	sext.w	s0,a0
  1036d6:	bf5d                	j	10368c <engine_aes_process_block_locked+0x4c>
  1036d8:	0f900413          	li	s0,249
  1036dc:	bf65                	j	103694 <engine_aes_process_block_locked+0x54>

00000000001036de <aes_gcm_aad_bytes_locked_start>:
  1036de:	1101                	addi	sp,sp,-32
  1036e0:	ec06                	sd	ra,24(sp)
  1036e2:	e822                	sd	s0,16(sp)
  1036e4:	e426                	sd	s1,8(sp)
  1036e6:	84aa                	mv	s1,a0
  1036e8:	905ff0ef          	jal	ra,102fec <aes_encrypt_decrypt_arg_check>
  1036ec:	0005041b          	sext.w	s0,a0
  1036f0:	0f000793          	li	a5,240
  1036f4:	00f41e63          	bne	s0,a5,103710 <aes_gcm_aad_bytes_locked_start+0x32>
  1036f8:	0344c783          	lbu	a5,52(s1)
  1036fc:	e3e9                	bnez	a5,1037be <aes_gcm_aad_bytes_locked_start+0xe0>
  1036fe:	8526                	mv	a0,s1
  103700:	cc5ff0ef          	jal	ra,1033c4 <engine_aes_setup_key_iv>
  103704:	0005041b          	sext.w	s0,a0
  103708:	0f000793          	li	a5,240
  10370c:	00f40863          	beq	s0,a5,10371c <aes_gcm_aad_bytes_locked_start+0x3e>
  103710:	8522                	mv	a0,s0
  103712:	60e2                	ld	ra,24(sp)
  103714:	6442                	ld	s0,16(sp)
  103716:	64a2                	ld	s1,8(sp)
  103718:	6105                	addi	sp,sp,32
  10371a:	8082                	ret
  10371c:	020489a3          	sb	zero,51(s1)
  103720:	0204a623          	sw	zero,44(s1)
  103724:	0004bc23          	sd	zero,24(s1)
  103728:	0204a223          	sw	zero,36(s1)
  10372c:	6488                	ld	a0,8(s1)
  10372e:	4701                	li	a4,0
  103730:	01a54683          	lbu	a3,26(a0)
  103734:	01854603          	lbu	a2,24(a0)
  103738:	490c                	lw	a1,16(a0)
  10373a:	ee2ff0ef          	jal	ra,102e1c <setup_aes_op_mode_locked>
  10373e:	0005041b          	sext.w	s0,a0
  103742:	0f000793          	li	a5,240
  103746:	fcf415e3          	bne	s0,a5,103710 <aes_gcm_aad_bytes_locked_start+0x32>
  10374a:	02848613          	addi	a2,s1,40
  10374e:	508c                	lw	a1,32(s1)
  103750:	6488                	ld	a0,8(s1)
  103752:	f64ff0ef          	jal	ra,102eb6 <engine_aes_set_block_count>
  103756:	0005041b          	sext.w	s0,a0
  10375a:	0f000793          	li	a5,240
  10375e:	faf419e3          	bne	s0,a5,103710 <aes_gcm_aad_bytes_locked_start+0x32>
  103762:	8526                	mv	a0,s1
  103764:	8cfff0ef          	jal	ra,103032 <aes_input_output_regs>
  103768:	0005041b          	sext.w	s0,a0
  10376c:	0f000793          	li	a5,240
  103770:	faf410e3          	bne	s0,a5,103710 <aes_gcm_aad_bytes_locked_start+0x32>
  103774:	649c                	ld	a5,8(s1)
  103776:	ffffe597          	auipc	a1,0xffffe
  10377a:	2c258593          	addi	a1,a1,706 # 101a38 <hw_cdev.2592+0xb8>
  10377e:	6388                	ld	a0,0(a5)
  103780:	4e3000ef          	jal	ra,104462 <se_engine_get_err_status>
  103784:	2501                	sext.w	a0,a0
  103786:	0f000793          	li	a5,240
  10378a:	00f50863          	beq	a0,a5,10379a <aes_gcm_aad_bytes_locked_start+0xbc>
  10378e:	0f000793          	li	a5,240
  103792:	00f50663          	beq	a0,a5,10379e <aes_gcm_aad_bytes_locked_start+0xc0>
  103796:	842a                	mv	s0,a0
  103798:	bfa5                	j	103710 <aes_gcm_aad_bytes_locked_start+0x32>
  10379a:	8522                	mv	a0,s0
  10379c:	bfcd                	j	10378e <aes_gcm_aad_bytes_locked_start+0xb0>
  10379e:	649c                	ld	a5,8(s1)
  1037a0:	03000593          	li	a1,48
  1037a4:	6388                	ld	a0,0(a5)
  1037a6:	3e3000ef          	jal	ra,104388 <tegra_start_se0_operation_locked>
  1037aa:	0005041b          	sext.w	s0,a0
  1037ae:	0f000793          	li	a5,240
  1037b2:	f4f41fe3          	bne	s0,a5,103710 <aes_gcm_aad_bytes_locked_start+0x32>
  1037b6:	4785                	li	a5,1
  1037b8:	02f48a23          	sb	a5,52(s1)
  1037bc:	bf91                	j	103710 <aes_gcm_aad_bytes_locked_start+0x32>
  1037be:	0ff00413          	li	s0,255
  1037c2:	b7b9                	j	103710 <aes_gcm_aad_bytes_locked_start+0x32>

00000000001037c4 <aes_process_locked_gcm_aad>:
  1037c4:	1101                	addi	sp,sp,-32
  1037c6:	ec06                	sd	ra,24(sp)
  1037c8:	e822                	sd	s0,16(sp)
  1037ca:	e426                	sd	s1,8(sp)
  1037cc:	6504                	ld	s1,8(a0)
  1037ce:	6d1c                	ld	a5,24(a0)
  1037d0:	eba1                	bnez	a5,103820 <aes_process_locked_gcm_aad+0x5c>
  1037d2:	515c                	lw	a5,36(a0)
  1037d4:	efa9                	bnez	a5,10382e <aes_process_locked_gcm_aad+0x6a>
  1037d6:	691c                	ld	a5,16(a0)
  1037d8:	c3a9                	beqz	a5,10381a <aes_process_locked_gcm_aad+0x56>
  1037da:	511c                	lw	a5,32(a0)
  1037dc:	ef81                	bnez	a5,1037f4 <aes_process_locked_gcm_aad+0x30>
  1037de:	0f000513          	li	a0,240
  1037e2:	58bc                	lw	a5,112(s1)
  1037e4:	c3a1                	beqz	a5,103824 <aes_process_locked_gcm_aad+0x60>
  1037e6:	48dc                	lw	a5,20(s1)
  1037e8:	fff00737          	lui	a4,0xfff00
  1037ec:	177d                	addi	a4,a4,-1
  1037ee:	8ff9                	and	a5,a5,a4
  1037f0:	c8dc                	sw	a5,20(s1)
  1037f2:	a80d                	j	103824 <aes_process_locked_gcm_aad+0x60>
  1037f4:	842a                	mv	s0,a0
  1037f6:	ee9ff0ef          	jal	ra,1036de <aes_gcm_aad_bytes_locked_start>
  1037fa:	2501                	sext.w	a0,a0
  1037fc:	0f000793          	li	a5,240
  103800:	02f51263          	bne	a0,a5,103824 <aes_process_locked_gcm_aad+0x60>
  103804:	8522                	mv	a0,s0
  103806:	dbdff0ef          	jal	ra,1035c2 <aes_process_locked_async_finish>
  10380a:	2501                	sext.w	a0,a0
  10380c:	0f000793          	li	a5,240
  103810:	00f51a63          	bne	a0,a5,103824 <aes_process_locked_gcm_aad+0x60>
  103814:	501c                	lw	a5,32(s0)
  103816:	d8bc                	sw	a5,112(s1)
  103818:	b7e9                	j	1037e2 <aes_process_locked_gcm_aad+0x1e>
  10381a:	0f000513          	li	a0,240
  10381e:	b7d1                	j	1037e2 <aes_process_locked_gcm_aad+0x1e>
  103820:	0ff00513          	li	a0,255
  103824:	60e2                	ld	ra,24(sp)
  103826:	6442                	ld	s0,16(sp)
  103828:	64a2                	ld	s1,8(sp)
  10382a:	6105                	addi	sp,sp,32
  10382c:	8082                	ret
  10382e:	0ff00513          	li	a0,255
  103832:	bfcd                	j	103824 <aes_process_locked_gcm_aad+0x60>

0000000000103834 <eng_aes_gcm_get_operation_preset>:
  103834:	01a54783          	lbu	a5,26(a0)
  103838:	c789                	beqz	a5,103842 <eng_aes_gcm_get_operation_preset+0xe>
  10383a:	593c                	lw	a5,112(a0)
  10383c:	cf89                	beqz	a5,103856 <eng_aes_gcm_get_operation_preset+0x22>
  10383e:	4781                	li	a5,0
  103840:	a011                	j	103844 <eng_aes_gcm_get_operation_preset+0x10>
  103842:	4781                	li	a5,0
  103844:	01b54703          	lbu	a4,27(a0)
  103848:	c319                	beqz	a4,10384e <eng_aes_gcm_get_operation_preset+0x1a>
  10384a:	0207e793          	ori	a5,a5,32
  10384e:	c19c                	sw	a5,0(a1)
  103850:	0f000513          	li	a0,240
  103854:	8082                	ret
  103856:	47c1                	li	a5,16
  103858:	b7f5                	j	103844 <eng_aes_gcm_get_operation_preset+0x10>

000000000010385a <start_engine_for_gcm_tag>:
  10385a:	7179                	addi	sp,sp,-48
  10385c:	f406                	sd	ra,40(sp)
  10385e:	f022                	sd	s0,32(sp)
  103860:	ec26                	sd	s1,24(sp)
  103862:	84aa                	mv	s1,a0
  103864:	c602                	sw	zero,12(sp)
  103866:	006c                	addi	a1,sp,12
  103868:	fcdff0ef          	jal	ra,103834 <eng_aes_gcm_get_operation_preset>
  10386c:	0005041b          	sext.w	s0,a0
  103870:	0f000793          	li	a5,240
  103874:	00f40863          	beq	s0,a5,103884 <start_engine_for_gcm_tag+0x2a>
  103878:	8522                	mv	a0,s0
  10387a:	70a2                	ld	ra,40(sp)
  10387c:	7402                	ld	s0,32(sp)
  10387e:	64e2                	ld	s1,24(sp)
  103880:	6145                	addi	sp,sp,48
  103882:	8082                	ret
  103884:	ffffe597          	auipc	a1,0xffffe
  103888:	1cc58593          	addi	a1,a1,460 # 101a50 <hw_cdev.2592+0xd0>
  10388c:	6088                	ld	a0,0(s1)
  10388e:	3d5000ef          	jal	ra,104462 <se_engine_get_err_status>
  103892:	2501                	sext.w	a0,a0
  103894:	0f000793          	li	a5,240
  103898:	00f50363          	beq	a0,a5,10389e <start_engine_for_gcm_tag+0x44>
  10389c:	842a                	mv	s0,a0
  10389e:	0f000793          	li	a5,240
  1038a2:	fcf41be3          	bne	s0,a5,103878 <start_engine_for_gcm_tag+0x1e>
  1038a6:	45b2                	lw	a1,12(sp)
  1038a8:	6088                	ld	a0,0(s1)
  1038aa:	2df000ef          	jal	ra,104388 <tegra_start_se0_operation_locked>
  1038ae:	0005041b          	sext.w	s0,a0
  1038b2:	0f000793          	li	a5,240
  1038b6:	fcf411e3          	bne	s0,a5,103878 <start_engine_for_gcm_tag+0x1e>
  1038ba:	6088                	ld	a0,0(s1)
  1038bc:	353000ef          	jal	ra,10440e <se_wait_engine_free>
  1038c0:	0005041b          	sext.w	s0,a0
  1038c4:	0f000793          	li	a5,240
  1038c8:	faf418e3          	bne	s0,a5,103878 <start_engine_for_gcm_tag+0x1e>
  1038cc:	ffffe597          	auipc	a1,0xffffe
  1038d0:	19c58593          	addi	a1,a1,412 # 101a68 <hw_cdev.2592+0xe8>
  1038d4:	6088                	ld	a0,0(s1)
  1038d6:	38d000ef          	jal	ra,104462 <se_engine_get_err_status>
  1038da:	2501                	sext.w	a0,a0
  1038dc:	0f000793          	li	a5,240
  1038e0:	00f50463          	beq	a0,a5,1038e8 <start_engine_for_gcm_tag+0x8e>
  1038e4:	842a                	mv	s0,a0
  1038e6:	bf49                	j	103878 <start_engine_for_gcm_tag+0x1e>
  1038e8:	8522                	mv	a0,s0
  1038ea:	bfed                	j	1038e4 <start_engine_for_gcm_tag+0x8a>

00000000001038ec <engine_aes_gcm_hw_finalize_tag>:
  1038ec:	1141                	addi	sp,sp,-16
  1038ee:	e406                	sd	ra,8(sp)
  1038f0:	e022                	sd	s0,0(sp)
  1038f2:	842a                	mv	s0,a0
  1038f4:	5934                	lw	a3,112(a0)
  1038f6:	ce89                	beqz	a3,103910 <engine_aes_gcm_hw_finalize_tag+0x24>
  1038f8:	4701                	li	a4,0
  1038fa:	02069793          	slli	a5,a3,0x20
  1038fe:	9381                	srli	a5,a5,0x20
  103900:	078e                	slli	a5,a5,0x3
  103902:	02079513          	slli	a0,a5,0x20
  103906:	9101                	srli	a0,a0,0x20
  103908:	04a79663          	bne	a5,a0,103954 <engine_aes_gcm_hw_finalize_tag+0x68>
  10390c:	2701                	sext.w	a4,a4
  10390e:	e729                	bnez	a4,103958 <engine_aes_gcm_hw_finalize_tag+0x6c>
  103910:	0036969b          	slliw	a3,a3,0x3
  103914:	6018                	ld	a4,0(s0)
  103916:	02074783          	lbu	a5,32(a4) # fffffffffff00020 <_partition_rtos_stack_top+0xffffffffffd7b210>
  10391a:	cba1                	beqz	a5,10396a <engine_aes_gcm_hw_finalize_tag+0x7e>
  10391c:	02472803          	lw	a6,36(a4)
  103920:	6505                	lui	a0,0x1
  103922:	13050513          	addi	a0,a0,304 # 1130 <dmem_sk_size+0x130>
  103926:	09056e63          	bltu	a0,a6,1039c2 <engine_aes_gcm_hw_finalize_tag+0xd6>
  10392a:	5708                	lw	a0,40(a4)
  10392c:	6785                	lui	a5,0x1
  10392e:	12f78793          	addi	a5,a5,303 # 112f <dmem_sk_size+0x12f>
  103932:	08a7fc63          	bleu	a0,a5,1039ca <engine_aes_gcm_hw_finalize_tag+0xde>
  103936:	6785                	lui	a5,0x1
  103938:	1307879b          	addiw	a5,a5,304
  10393c:	410787bb          	subw	a5,a5,a6
  103940:	01872803          	lw	a6,24(a4)
  103944:	fff7c513          	not	a0,a5
  103948:	2501                	sext.w	a0,a0
  10394a:	09056463          	bltu	a0,a6,1039d2 <engine_aes_gcm_hw_finalize_tag+0xe6>
  10394e:	010787bb          	addw	a5,a5,a6
  103952:	a839                	j	103970 <engine_aes_gcm_hw_finalize_tag+0x84>
  103954:	4705                	li	a4,1
  103956:	bf5d                	j	10390c <engine_aes_gcm_hw_finalize_tag+0x20>
  103958:	ffffe517          	auipc	a0,0xffffe
  10395c:	12850513          	addi	a0,a0,296 # 101a80 <hw_cdev.2592+0x100>
  103960:	3a8000ef          	jal	ra,103d08 <se_util_arith_emsg>
  103964:	0f700513          	li	a0,247
  103968:	ac41                	j	103bf8 <engine_aes_gcm_hw_finalize_tag+0x30c>
  10396a:	6785                	lui	a5,0x1
  10396c:	13078793          	addi	a5,a5,304 # 1130 <dmem_sk_size+0x130>
  103970:	6718                	ld	a4,8(a4)
  103972:	6b18                	ld	a4,16(a4)
  103974:	1782                	slli	a5,a5,0x20
  103976:	9381                	srli	a5,a5,0x20
  103978:	97ba                	add	a5,a5,a4
  10397a:	1782                	slli	a5,a5,0x20
  10397c:	9381                	srli	a5,a5,0x20
  10397e:	0007a023          	sw	zero,0(a5)
  103982:	6018                	ld	a4,0(s0)
  103984:	02074783          	lbu	a5,32(a4)
  103988:	cba9                	beqz	a5,1039da <engine_aes_gcm_hw_finalize_tag+0xee>
  10398a:	02472803          	lw	a6,36(a4)
  10398e:	6505                	lui	a0,0x1
  103990:	12c50513          	addi	a0,a0,300 # 112c <dmem_sk_size+0x12c>
  103994:	0b056963          	bltu	a0,a6,103a46 <engine_aes_gcm_hw_finalize_tag+0x15a>
  103998:	5708                	lw	a0,40(a4)
  10399a:	6785                	lui	a5,0x1
  10399c:	12b78793          	addi	a5,a5,299 # 112b <dmem_sk_size+0x12b>
  1039a0:	0aa7f763          	bleu	a0,a5,103a4e <engine_aes_gcm_hw_finalize_tag+0x162>
  1039a4:	6785                	lui	a5,0x1
  1039a6:	12c7879b          	addiw	a5,a5,300
  1039aa:	410787bb          	subw	a5,a5,a6
  1039ae:	01872803          	lw	a6,24(a4)
  1039b2:	fff7c513          	not	a0,a5
  1039b6:	2501                	sext.w	a0,a0
  1039b8:	09056f63          	bltu	a0,a6,103a56 <engine_aes_gcm_hw_finalize_tag+0x16a>
  1039bc:	010787bb          	addw	a5,a5,a6
  1039c0:	a005                	j	1039e0 <engine_aes_gcm_hw_finalize_tag+0xf4>
  1039c2:	6785                	lui	a5,0x1
  1039c4:	13078793          	addi	a5,a5,304 # 1130 <dmem_sk_size+0x130>
  1039c8:	b765                	j	103970 <engine_aes_gcm_hw_finalize_tag+0x84>
  1039ca:	6785                	lui	a5,0x1
  1039cc:	13078793          	addi	a5,a5,304 # 1130 <dmem_sk_size+0x130>
  1039d0:	b745                	j	103970 <engine_aes_gcm_hw_finalize_tag+0x84>
  1039d2:	6785                	lui	a5,0x1
  1039d4:	13078793          	addi	a5,a5,304 # 1130 <dmem_sk_size+0x130>
  1039d8:	bf61                	j	103970 <engine_aes_gcm_hw_finalize_tag+0x84>
  1039da:	6785                	lui	a5,0x1
  1039dc:	12c78793          	addi	a5,a5,300 # 112c <dmem_sk_size+0x12c>
  1039e0:	6718                	ld	a4,8(a4)
  1039e2:	6b18                	ld	a4,16(a4)
  1039e4:	1782                	slli	a5,a5,0x20
  1039e6:	9381                	srli	a5,a5,0x20
  1039e8:	97ba                	add	a5,a5,a4
  1039ea:	1782                	slli	a5,a5,0x20
  1039ec:	9381                	srli	a5,a5,0x20
  1039ee:	c394                	sw	a3,0(a5)
  1039f0:	cd89                	beqz	a1,103a0a <engine_aes_gcm_hw_finalize_tag+0x11e>
  1039f2:	4701                	li	a4,0
  1039f4:	02059793          	slli	a5,a1,0x20
  1039f8:	9381                	srli	a5,a5,0x20
  1039fa:	078e                	slli	a5,a5,0x3
  1039fc:	02079693          	slli	a3,a5,0x20
  103a00:	9281                	srli	a3,a3,0x20
  103a02:	04d79e63          	bne	a5,a3,103a5e <engine_aes_gcm_hw_finalize_tag+0x172>
  103a06:	2701                	sext.w	a4,a4
  103a08:	ef29                	bnez	a4,103a62 <engine_aes_gcm_hw_finalize_tag+0x176>
  103a0a:	0035959b          	slliw	a1,a1,0x3
  103a0e:	6018                	ld	a4,0(s0)
  103a10:	02074783          	lbu	a5,32(a4)
  103a14:	c3a5                	beqz	a5,103a74 <engine_aes_gcm_hw_finalize_tag+0x188>
  103a16:	5348                	lw	a0,36(a4)
  103a18:	6685                	lui	a3,0x1
  103a1a:	13868693          	addi	a3,a3,312 # 1138 <dmem_sk_size+0x138>
  103a1e:	0aa6e363          	bltu	a3,a0,103ac4 <engine_aes_gcm_hw_finalize_tag+0x1d8>
  103a22:	5714                	lw	a3,40(a4)
  103a24:	6785                	lui	a5,0x1
  103a26:	13778793          	addi	a5,a5,311 # 1137 <dmem_sk_size+0x137>
  103a2a:	0ad7f163          	bleu	a3,a5,103acc <engine_aes_gcm_hw_finalize_tag+0x1e0>
  103a2e:	6785                	lui	a5,0x1
  103a30:	1387879b          	addiw	a5,a5,312
  103a34:	9f89                	subw	a5,a5,a0
  103a36:	4f08                	lw	a0,24(a4)
  103a38:	fff7c693          	not	a3,a5
  103a3c:	2681                	sext.w	a3,a3
  103a3e:	08a6eb63          	bltu	a3,a0,103ad4 <engine_aes_gcm_hw_finalize_tag+0x1e8>
  103a42:	9fa9                	addw	a5,a5,a0
  103a44:	a81d                	j	103a7a <engine_aes_gcm_hw_finalize_tag+0x18e>
  103a46:	6785                	lui	a5,0x1
  103a48:	12c78793          	addi	a5,a5,300 # 112c <dmem_sk_size+0x12c>
  103a4c:	bf51                	j	1039e0 <engine_aes_gcm_hw_finalize_tag+0xf4>
  103a4e:	6785                	lui	a5,0x1
  103a50:	12c78793          	addi	a5,a5,300 # 112c <dmem_sk_size+0x12c>
  103a54:	b771                	j	1039e0 <engine_aes_gcm_hw_finalize_tag+0xf4>
  103a56:	6785                	lui	a5,0x1
  103a58:	12c78793          	addi	a5,a5,300 # 112c <dmem_sk_size+0x12c>
  103a5c:	b751                	j	1039e0 <engine_aes_gcm_hw_finalize_tag+0xf4>
  103a5e:	4705                	li	a4,1
  103a60:	b75d                	j	103a06 <engine_aes_gcm_hw_finalize_tag+0x11a>
  103a62:	ffffe517          	auipc	a0,0xffffe
  103a66:	01e50513          	addi	a0,a0,30 # 101a80 <hw_cdev.2592+0x100>
  103a6a:	29e000ef          	jal	ra,103d08 <se_util_arith_emsg>
  103a6e:	0f700513          	li	a0,247
  103a72:	a259                	j	103bf8 <engine_aes_gcm_hw_finalize_tag+0x30c>
  103a74:	6785                	lui	a5,0x1
  103a76:	13878793          	addi	a5,a5,312 # 1138 <dmem_sk_size+0x138>
  103a7a:	6718                	ld	a4,8(a4)
  103a7c:	6b18                	ld	a4,16(a4)
  103a7e:	1782                	slli	a5,a5,0x20
  103a80:	9381                	srli	a5,a5,0x20
  103a82:	97ba                	add	a5,a5,a4
  103a84:	1782                	slli	a5,a5,0x20
  103a86:	9381                	srli	a5,a5,0x20
  103a88:	0007a023          	sw	zero,0(a5)
  103a8c:	6018                	ld	a4,0(s0)
  103a8e:	02074783          	lbu	a5,32(a4)
  103a92:	c7a9                	beqz	a5,103adc <engine_aes_gcm_hw_finalize_tag+0x1f0>
  103a94:	5348                	lw	a0,36(a4)
  103a96:	6685                	lui	a3,0x1
  103a98:	13468693          	addi	a3,a3,308 # 1134 <dmem_sk_size+0x134>
  103a9c:	0aa6ea63          	bltu	a3,a0,103b50 <engine_aes_gcm_hw_finalize_tag+0x264>
  103aa0:	5714                	lw	a3,40(a4)
  103aa2:	6785                	lui	a5,0x1
  103aa4:	13378793          	addi	a5,a5,307 # 1133 <dmem_sk_size+0x133>
  103aa8:	0ad7f863          	bleu	a3,a5,103b58 <engine_aes_gcm_hw_finalize_tag+0x26c>
  103aac:	6785                	lui	a5,0x1
  103aae:	1347879b          	addiw	a5,a5,308
  103ab2:	9f89                	subw	a5,a5,a0
  103ab4:	4f08                	lw	a0,24(a4)
  103ab6:	fff7c693          	not	a3,a5
  103aba:	2681                	sext.w	a3,a3
  103abc:	0aa6e263          	bltu	a3,a0,103b60 <engine_aes_gcm_hw_finalize_tag+0x274>
  103ac0:	9fa9                	addw	a5,a5,a0
  103ac2:	a005                	j	103ae2 <engine_aes_gcm_hw_finalize_tag+0x1f6>
  103ac4:	6785                	lui	a5,0x1
  103ac6:	13878793          	addi	a5,a5,312 # 1138 <dmem_sk_size+0x138>
  103aca:	bf45                	j	103a7a <engine_aes_gcm_hw_finalize_tag+0x18e>
  103acc:	6785                	lui	a5,0x1
  103ace:	13878793          	addi	a5,a5,312 # 1138 <dmem_sk_size+0x138>
  103ad2:	b765                	j	103a7a <engine_aes_gcm_hw_finalize_tag+0x18e>
  103ad4:	6785                	lui	a5,0x1
  103ad6:	13878793          	addi	a5,a5,312 # 1138 <dmem_sk_size+0x138>
  103ada:	b745                	j	103a7a <engine_aes_gcm_hw_finalize_tag+0x18e>
  103adc:	6785                	lui	a5,0x1
  103ade:	13478793          	addi	a5,a5,308 # 1134 <dmem_sk_size+0x134>
  103ae2:	6718                	ld	a4,8(a4)
  103ae4:	6b18                	ld	a4,16(a4)
  103ae6:	1782                	slli	a5,a5,0x20
  103ae8:	9381                	srli	a5,a5,0x20
  103aea:	97ba                	add	a5,a5,a4
  103aec:	1782                	slli	a5,a5,0x20
  103aee:	9381                	srli	a5,a5,0x20
  103af0:	c38c                	sw	a1,0(a5)
  103af2:	8732                	mv	a4,a2
  103af4:	57fd                	li	a5,-1
  103af6:	17a2                	slli	a5,a5,0x28
  103af8:	8ff1                	and	a5,a5,a2
  103afa:	12079563          	bnez	a5,103c24 <engine_aes_gcm_hw_finalize_tag+0x338>
  103afe:	42065793          	srai	a5,a2,0x20
  103b02:	0187979b          	slliw	a5,a5,0x18
  103b06:	0107e793          	ori	a5,a5,16
  103b0a:	2781                	sext.w	a5,a5
  103b0c:	600c                	ld	a1,0(s0)
  103b0e:	56fd                	li	a3,-1
  103b10:	9281                	srli	a3,a3,0x20
  103b12:	00c6f563          	bleu	a2,a3,103b1c <engine_aes_gcm_hw_finalize_tag+0x230>
  103b16:	02061713          	slli	a4,a2,0x20
  103b1a:	9301                	srli	a4,a4,0x20
  103b1c:	0007061b          	sext.w	a2,a4
  103b20:	0205c703          	lbu	a4,32(a1)
  103b24:	c331                	beqz	a4,103b68 <engine_aes_gcm_hw_finalize_tag+0x27c>
  103b26:	51c8                	lw	a0,36(a1)
  103b28:	6685                	lui	a3,0x1
  103b2a:	06d1                	addi	a3,a3,20
  103b2c:	08a6e163          	bltu	a3,a0,103bae <engine_aes_gcm_hw_finalize_tag+0x2c2>
  103b30:	5594                	lw	a3,40(a1)
  103b32:	6705                	lui	a4,0x1
  103b34:	074d                	addi	a4,a4,19
  103b36:	06d77f63          	bleu	a3,a4,103bb4 <engine_aes_gcm_hw_finalize_tag+0x2c8>
  103b3a:	6705                	lui	a4,0x1
  103b3c:	2751                	addiw	a4,a4,20
  103b3e:	9f09                	subw	a4,a4,a0
  103b40:	4d88                	lw	a0,24(a1)
  103b42:	fff74693          	not	a3,a4
  103b46:	2681                	sext.w	a3,a3
  103b48:	06a6e963          	bltu	a3,a0,103bba <engine_aes_gcm_hw_finalize_tag+0x2ce>
  103b4c:	9f29                	addw	a4,a4,a0
  103b4e:	a839                	j	103b6c <engine_aes_gcm_hw_finalize_tag+0x280>
  103b50:	6785                	lui	a5,0x1
  103b52:	13478793          	addi	a5,a5,308 # 1134 <dmem_sk_size+0x134>
  103b56:	b771                	j	103ae2 <engine_aes_gcm_hw_finalize_tag+0x1f6>
  103b58:	6785                	lui	a5,0x1
  103b5a:	13478793          	addi	a5,a5,308 # 1134 <dmem_sk_size+0x134>
  103b5e:	b751                	j	103ae2 <engine_aes_gcm_hw_finalize_tag+0x1f6>
  103b60:	6785                	lui	a5,0x1
  103b62:	13478793          	addi	a5,a5,308 # 1134 <dmem_sk_size+0x134>
  103b66:	bfb5                	j	103ae2 <engine_aes_gcm_hw_finalize_tag+0x1f6>
  103b68:	6705                	lui	a4,0x1
  103b6a:	0751                	addi	a4,a4,20
  103b6c:	6594                	ld	a3,8(a1)
  103b6e:	6a94                	ld	a3,16(a3)
  103b70:	1702                	slli	a4,a4,0x20
  103b72:	9301                	srli	a4,a4,0x20
  103b74:	9736                	add	a4,a4,a3
  103b76:	1702                	slli	a4,a4,0x20
  103b78:	9301                	srli	a4,a4,0x20
  103b7a:	c310                	sw	a2,0(a4)
  103b7c:	6014                	ld	a3,0(s0)
  103b7e:	0206c703          	lbu	a4,32(a3) # 1020 <dmem_sk_size+0x20>
  103b82:	cf1d                	beqz	a4,103bc0 <engine_aes_gcm_hw_finalize_tag+0x2d4>
  103b84:	52cc                	lw	a1,36(a3)
  103b86:	6605                	lui	a2,0x1
  103b88:	0661                	addi	a2,a2,24
  103b8a:	06b66f63          	bltu	a2,a1,103c08 <engine_aes_gcm_hw_finalize_tag+0x31c>
  103b8e:	5690                	lw	a2,40(a3)
  103b90:	6705                	lui	a4,0x1
  103b92:	075d                	addi	a4,a4,23
  103b94:	06c77d63          	bleu	a2,a4,103c0e <engine_aes_gcm_hw_finalize_tag+0x322>
  103b98:	6705                	lui	a4,0x1
  103b9a:	2761                	addiw	a4,a4,24
  103b9c:	9f0d                	subw	a4,a4,a1
  103b9e:	4e8c                	lw	a1,24(a3)
  103ba0:	fff74613          	not	a2,a4
  103ba4:	2601                	sext.w	a2,a2
  103ba6:	06b66763          	bltu	a2,a1,103c14 <engine_aes_gcm_hw_finalize_tag+0x328>
  103baa:	9f2d                	addw	a4,a4,a1
  103bac:	a821                	j	103bc4 <engine_aes_gcm_hw_finalize_tag+0x2d8>
  103bae:	6705                	lui	a4,0x1
  103bb0:	0751                	addi	a4,a4,20
  103bb2:	bf6d                	j	103b6c <engine_aes_gcm_hw_finalize_tag+0x280>
  103bb4:	6705                	lui	a4,0x1
  103bb6:	0751                	addi	a4,a4,20
  103bb8:	bf55                	j	103b6c <engine_aes_gcm_hw_finalize_tag+0x280>
  103bba:	6705                	lui	a4,0x1
  103bbc:	0751                	addi	a4,a4,20
  103bbe:	b77d                	j	103b6c <engine_aes_gcm_hw_finalize_tag+0x280>
  103bc0:	6705                	lui	a4,0x1
  103bc2:	0761                	addi	a4,a4,24
  103bc4:	6694                	ld	a3,8(a3)
  103bc6:	6a94                	ld	a3,16(a3)
  103bc8:	1702                	slli	a4,a4,0x20
  103bca:	9301                	srli	a4,a4,0x20
  103bcc:	9736                	add	a4,a4,a3
  103bce:	1702                	slli	a4,a4,0x20
  103bd0:	9301                	srli	a4,a4,0x20
  103bd2:	c31c                	sw	a5,0(a4)
  103bd4:	703c                	ld	a5,96(s0)
  103bd6:	01000737          	lui	a4,0x1000
  103bda:	c7d8                	sw	a4,12(a5)
  103bdc:	4781                	li	a5,0
  103bde:	4715                	li	a4,5
  103be0:	4681                	li	a3,0
  103be2:	01844603          	lbu	a2,24(s0)
  103be6:	480c                	lw	a1,16(s0)
  103be8:	8522                	mv	a0,s0
  103bea:	8a0ff0ef          	jal	ra,102c8a <engine_aes_op_mode_normal>
  103bee:	2501                	sext.w	a0,a0
  103bf0:	0f000793          	li	a5,240
  103bf4:	02f50363          	beq	a0,a5,103c1a <engine_aes_gcm_hw_finalize_tag+0x32e>
  103bf8:	485c                	lw	a5,20(s0)
  103bfa:	eff7f793          	andi	a5,a5,-257
  103bfe:	c85c                	sw	a5,20(s0)
  103c00:	60a2                	ld	ra,8(sp)
  103c02:	6402                	ld	s0,0(sp)
  103c04:	0141                	addi	sp,sp,16
  103c06:	8082                	ret
  103c08:	6705                	lui	a4,0x1
  103c0a:	0761                	addi	a4,a4,24
  103c0c:	bf65                	j	103bc4 <engine_aes_gcm_hw_finalize_tag+0x2d8>
  103c0e:	6705                	lui	a4,0x1
  103c10:	0761                	addi	a4,a4,24
  103c12:	bf4d                	j	103bc4 <engine_aes_gcm_hw_finalize_tag+0x2d8>
  103c14:	6705                	lui	a4,0x1
  103c16:	0761                	addi	a4,a4,24
  103c18:	b775                	j	103bc4 <engine_aes_gcm_hw_finalize_tag+0x2d8>
  103c1a:	8522                	mv	a0,s0
  103c1c:	c3fff0ef          	jal	ra,10385a <start_engine_for_gcm_tag>
  103c20:	2501                	sext.w	a0,a0
  103c22:	bfd9                	j	103bf8 <engine_aes_gcm_hw_finalize_tag+0x30c>
  103c24:	0f900513          	li	a0,249
  103c28:	bfc1                	j	103bf8 <engine_aes_gcm_hw_finalize_tag+0x30c>

0000000000103c2a <aes_gcm_finalize_tag>:
  103c2a:	1101                	addi	sp,sp,-32
  103c2c:	ec06                	sd	ra,24(sp)
  103c2e:	e822                	sd	s0,16(sp)
  103c30:	e426                	sd	s1,8(sp)
  103c32:	6504                	ld	s1,8(a0)
  103c34:	6898                	ld	a4,16(s1)
  103c36:	020017b7          	lui	a5,0x2001
  103c3a:	07f2                	slli	a5,a5,0x1c
  103c3c:	8f7d                	and	a4,a4,a5
  103c3e:	00f70963          	beq	a4,a5,103c50 <aes_gcm_finalize_tag+0x26>
  103c42:	0f000513          	li	a0,240
  103c46:	60e2                	ld	ra,24(sp)
  103c48:	6442                	ld	s0,16(sp)
  103c4a:	64a2                	ld	s1,8(sp)
  103c4c:	6105                	addi	sp,sp,32
  103c4e:	8082                	ret
  103c50:	842a                	mv	s0,a0
  103c52:	f72ff0ef          	jal	ra,1033c4 <engine_aes_setup_key_iv>
  103c56:	2501                	sext.w	a0,a0
  103c58:	0f000793          	li	a5,240
  103c5c:	fef515e3          	bne	a0,a5,103c46 <aes_gcm_finalize_tag+0x1c>
  103c60:	6c10                	ld	a2,24(s0)
  103c62:	500c                	lw	a1,32(s0)
  103c64:	8526                	mv	a0,s1
  103c66:	c87ff0ef          	jal	ra,1038ec <engine_aes_gcm_hw_finalize_tag>
  103c6a:	2501                	sext.w	a0,a0
  103c6c:	bfe9                	j	103c46 <aes_gcm_finalize_tag+0x1c>

0000000000103c6e <eng_aes_gcm_process_block_locked>:
  103c6e:	1141                	addi	sp,sp,-16
  103c70:	e406                	sd	ra,8(sp)
  103c72:	e022                	sd	s0,0(sp)
  103c74:	842a                	mv	s0,a0
  103c76:	651c                	ld	a5,8(a0)
  103c78:	01b7c703          	lbu	a4,27(a5) # 200101b <_partition_rtos_stack_top+0x1e7c20b>
  103c7c:	c319                	beqz	a4,103c82 <eng_aes_gcm_process_block_locked+0x14>
  103c7e:	6918                	ld	a4,16(a0)
  103c80:	cf11                	beqz	a4,103c9c <eng_aes_gcm_process_block_locked+0x2e>
  103c82:	4bdc                	lw	a5,20(a5)
  103c84:	00100737          	lui	a4,0x100
  103c88:	8ff9                	and	a5,a5,a4
  103c8a:	cf89                	beqz	a5,103ca4 <eng_aes_gcm_process_block_locked+0x36>
  103c8c:	8522                	mv	a0,s0
  103c8e:	b37ff0ef          	jal	ra,1037c4 <aes_process_locked_gcm_aad>
  103c92:	2501                	sext.w	a0,a0
  103c94:	60a2                	ld	ra,8(sp)
  103c96:	6402                	ld	s0,0(sp)
  103c98:	0141                	addi	sp,sp,16
  103c9a:	8082                	ret
  103c9c:	f8fff0ef          	jal	ra,103c2a <aes_gcm_finalize_tag>
  103ca0:	2501                	sext.w	a0,a0
  103ca2:	bfcd                	j	103c94 <eng_aes_gcm_process_block_locked+0x26>
  103ca4:	8522                	mv	a0,s0
  103ca6:	faeff0ef          	jal	ra,103454 <aes_process_locked_async_start>
  103caa:	2501                	sext.w	a0,a0
  103cac:	0f000793          	li	a5,240
  103cb0:	fef512e3          	bne	a0,a5,103c94 <eng_aes_gcm_process_block_locked+0x26>
  103cb4:	8522                	mv	a0,s0
  103cb6:	90dff0ef          	jal	ra,1035c2 <aes_process_locked_async_finish>
  103cba:	2501                	sext.w	a0,a0
  103cbc:	bfe1                	j	103c94 <eng_aes_gcm_process_block_locked+0x26>

0000000000103cbe <mem_move>:
  103cbe:	e295                	bnez	a3,103ce2 <mem_move+0x24>
  103cc0:	4701                	li	a4,0
  103cc2:	04c77263          	bleu	a2,a4,103d06 <mem_move+0x48>
  103cc6:	02071793          	slli	a5,a4,0x20
  103cca:	9381                	srli	a5,a5,0x20
  103ccc:	00f586b3          	add	a3,a1,a5
  103cd0:	97aa                	add	a5,a5,a0
  103cd2:	0006c683          	lbu	a3,0(a3)
  103cd6:	0ff6f693          	andi	a3,a3,255
  103cda:	00d78023          	sb	a3,0(a5)
  103cde:	2705                	addiw	a4,a4,1
  103ce0:	b7cd                	j	103cc2 <mem_move+0x4>
  103ce2:	c20d                	beqz	a2,103d04 <mem_move+0x46>
  103ce4:	fff6079b          	addiw	a5,a2,-1
  103ce8:	0007861b          	sext.w	a2,a5
  103cec:	1782                	slli	a5,a5,0x20
  103cee:	9381                	srli	a5,a5,0x20
  103cf0:	00f58733          	add	a4,a1,a5
  103cf4:	97aa                	add	a5,a5,a0
  103cf6:	00074703          	lbu	a4,0(a4) # 100000 <__fmc_imem_size+0xf8a00>
  103cfa:	0ff77713          	andi	a4,a4,255
  103cfe:	00e78023          	sb	a4,0(a5)
  103d02:	b7c5                	j	103ce2 <mem_move+0x24>
  103d04:	8082                	ret
  103d06:	8082                	ret

0000000000103d08 <se_util_arith_emsg>:
  103d08:	8082                	ret

0000000000103d0a <se_util_mem_set>:
  103d0a:	cd11                	beqz	a0,103d26 <se_util_mem_set+0x1c>
  103d0c:	e211                	bnez	a2,103d10 <se_util_mem_set+0x6>
  103d0e:	8082                	ret
  103d10:	4781                	li	a5,0
  103d12:	00c7fa63          	bleu	a2,a5,103d26 <se_util_mem_set+0x1c>
  103d16:	02079713          	slli	a4,a5,0x20
  103d1a:	9301                	srli	a4,a4,0x20
  103d1c:	972a                	add	a4,a4,a0
  103d1e:	00b70023          	sb	a1,0(a4)
  103d22:	2785                	addiw	a5,a5,1
  103d24:	b7fd                	j	103d12 <se_util_mem_set+0x8>
  103d26:	8082                	ret

0000000000103d28 <se_util_mem_move>:
  103d28:	ca05                	beqz	a2,103d58 <se_util_mem_move+0x30>
  103d2a:	02a58763          	beq	a1,a0,103d58 <se_util_mem_move+0x30>
  103d2e:	1141                	addi	sp,sp,-16
  103d30:	e406                	sd	ra,8(sp)
  103d32:	00a5fb63          	bleu	a0,a1,103d48 <se_util_mem_move+0x20>
  103d36:	fff6079b          	addiw	a5,a2,-1
  103d3a:	1782                	slli	a5,a5,0x20
  103d3c:	9381                	srli	a5,a5,0x20
  103d3e:	97ae                	add	a5,a5,a1
  103d40:	00a7fa63          	bleu	a0,a5,103d54 <se_util_mem_move+0x2c>
  103d44:	4681                	li	a3,0
  103d46:	a011                	j	103d4a <se_util_mem_move+0x22>
  103d48:	4681                	li	a3,0
  103d4a:	f75ff0ef          	jal	ra,103cbe <mem_move>
  103d4e:	60a2                	ld	ra,8(sp)
  103d50:	0141                	addi	sp,sp,16
  103d52:	8082                	ret
  103d54:	4685                	li	a3,1
  103d56:	bfd5                	j	103d4a <se_util_mem_move+0x22>
  103d58:	8082                	ret

0000000000103d5a <se_util_buf_to_u64>:
  103d5a:	cdb5                	beqz	a1,103dd6 <se_util_buf_to_u64+0x7c>
  103d5c:	00054783          	lbu	a5,0(a0)
  103d60:	00154683          	lbu	a3,1(a0)
  103d64:	00254703          	lbu	a4,2(a0)
  103d68:	00354603          	lbu	a2,3(a0)
  103d6c:	0ff7f793          	andi	a5,a5,255
  103d70:	0ff6f693          	andi	a3,a3,255
  103d74:	0ff77713          	andi	a4,a4,255
  103d78:	0187979b          	slliw	a5,a5,0x18
  103d7c:	0106969b          	slliw	a3,a3,0x10
  103d80:	8fd5                	or	a5,a5,a3
  103d82:	2781                	sext.w	a5,a5
  103d84:	0087171b          	slliw	a4,a4,0x8
  103d88:	8fd9                	or	a5,a5,a4
  103d8a:	2781                	sext.w	a5,a5
  103d8c:	0ff67613          	andi	a2,a2,255
  103d90:	8fd1                	or	a5,a5,a2
  103d92:	86be                	mv	a3,a5
  103d94:	1682                	slli	a3,a3,0x20
  103d96:	00454703          	lbu	a4,4(a0)
  103d9a:	00554583          	lbu	a1,5(a0)
  103d9e:	00654603          	lbu	a2,6(a0)
  103da2:	00754503          	lbu	a0,7(a0)
  103da6:	0ff77713          	andi	a4,a4,255
  103daa:	0ff5f593          	andi	a1,a1,255
  103dae:	0ff67613          	andi	a2,a2,255
  103db2:	0187171b          	slliw	a4,a4,0x18
  103db6:	0105979b          	slliw	a5,a1,0x10
  103dba:	8fd9                	or	a5,a5,a4
  103dbc:	2781                	sext.w	a5,a5
  103dbe:	0086161b          	slliw	a2,a2,0x8
  103dc2:	8fd1                	or	a5,a5,a2
  103dc4:	2781                	sext.w	a5,a5
  103dc6:	0ff57513          	andi	a0,a0,255
  103dca:	8fc9                	or	a5,a5,a0
  103dcc:	853e                	mv	a0,a5
  103dce:	1502                	slli	a0,a0,0x20
  103dd0:	9101                	srli	a0,a0,0x20
  103dd2:	8d55                	or	a0,a0,a3
  103dd4:	8082                	ret
  103dd6:	00754783          	lbu	a5,7(a0)
  103dda:	00654683          	lbu	a3,6(a0)
  103dde:	00554703          	lbu	a4,5(a0)
  103de2:	00454603          	lbu	a2,4(a0)
  103de6:	0ff7f793          	andi	a5,a5,255
  103dea:	0ff6f693          	andi	a3,a3,255
  103dee:	0ff77713          	andi	a4,a4,255
  103df2:	0187979b          	slliw	a5,a5,0x18
  103df6:	0106969b          	slliw	a3,a3,0x10
  103dfa:	8fd5                	or	a5,a5,a3
  103dfc:	2781                	sext.w	a5,a5
  103dfe:	0087171b          	slliw	a4,a4,0x8
  103e02:	8fd9                	or	a5,a5,a4
  103e04:	2781                	sext.w	a5,a5
  103e06:	0ff67613          	andi	a2,a2,255
  103e0a:	8fd1                	or	a5,a5,a2
  103e0c:	86be                	mv	a3,a5
  103e0e:	1682                	slli	a3,a3,0x20
  103e10:	00354703          	lbu	a4,3(a0)
  103e14:	00254583          	lbu	a1,2(a0)
  103e18:	00154603          	lbu	a2,1(a0)
  103e1c:	00054503          	lbu	a0,0(a0)
  103e20:	0ff77713          	andi	a4,a4,255
  103e24:	0ff5f593          	andi	a1,a1,255
  103e28:	0ff67613          	andi	a2,a2,255
  103e2c:	0187171b          	slliw	a4,a4,0x18
  103e30:	0105979b          	slliw	a5,a1,0x10
  103e34:	8fd9                	or	a5,a5,a4
  103e36:	2781                	sext.w	a5,a5
  103e38:	0086161b          	slliw	a2,a2,0x8
  103e3c:	8fd1                	or	a5,a5,a2
  103e3e:	2781                	sext.w	a5,a5
  103e40:	0ff57513          	andi	a0,a0,255
  103e44:	8fc9                	or	a5,a5,a0
  103e46:	b759                	j	103dcc <se_util_buf_to_u64+0x72>

0000000000103e48 <se_util_u64_to_buf>:
  103e48:	ce21                	beqz	a2,103ea0 <se_util_u64_to_buf+0x58>
  103e4a:	02055693          	srli	a3,a0,0x20
  103e4e:	0006879b          	sext.w	a5,a3
  103e52:	0187d61b          	srliw	a2,a5,0x18
  103e56:	8732                	mv	a4,a2
  103e58:	00e58023          	sb	a4,0(a1)
  103e5c:	0107d71b          	srliw	a4,a5,0x10
  103e60:	00e580a3          	sb	a4,1(a1)
  103e64:	0087d79b          	srliw	a5,a5,0x8
  103e68:	00f58123          	sb	a5,2(a1)
  103e6c:	00d581a3          	sb	a3,3(a1)
  103e70:	57fd                	li	a5,-1
  103e72:	9381                	srli	a5,a5,0x20
  103e74:	00a7f463          	bleu	a0,a5,103e7c <se_util_u64_to_buf+0x34>
  103e78:	1502                	slli	a0,a0,0x20
  103e7a:	9101                	srli	a0,a0,0x20
  103e7c:	0005079b          	sext.w	a5,a0
  103e80:	0187d69b          	srliw	a3,a5,0x18
  103e84:	8736                	mv	a4,a3
  103e86:	00e58223          	sb	a4,4(a1)
  103e8a:	0107d71b          	srliw	a4,a5,0x10
  103e8e:	00e582a3          	sb	a4,5(a1)
  103e92:	0087d79b          	srliw	a5,a5,0x8
  103e96:	00f58323          	sb	a5,6(a1)
  103e9a:	00a583a3          	sb	a0,7(a1)
  103e9e:	8082                	ret
  103ea0:	02055693          	srli	a3,a0,0x20
  103ea4:	0006879b          	sext.w	a5,a3
  103ea8:	0187d61b          	srliw	a2,a5,0x18
  103eac:	8732                	mv	a4,a2
  103eae:	00e583a3          	sb	a4,7(a1)
  103eb2:	0107d71b          	srliw	a4,a5,0x10
  103eb6:	00e58323          	sb	a4,6(a1)
  103eba:	0087d79b          	srliw	a5,a5,0x8
  103ebe:	00f582a3          	sb	a5,5(a1)
  103ec2:	00d58223          	sb	a3,4(a1)
  103ec6:	57fd                	li	a5,-1
  103ec8:	9381                	srli	a5,a5,0x20
  103eca:	00a7f463          	bleu	a0,a5,103ed2 <se_util_u64_to_buf+0x8a>
  103ece:	1502                	slli	a0,a0,0x20
  103ed0:	9101                	srli	a0,a0,0x20
  103ed2:	0005079b          	sext.w	a5,a0
  103ed6:	0187d69b          	srliw	a3,a5,0x18
  103eda:	8736                	mv	a4,a3
  103edc:	00e581a3          	sb	a4,3(a1)
  103ee0:	0107d71b          	srliw	a4,a5,0x10
  103ee4:	00e58123          	sb	a4,2(a1)
  103ee8:	0087d79b          	srliw	a5,a5,0x8
  103eec:	00f580a3          	sb	a5,1(a1)
  103ef0:	00a58023          	sb	a0,0(a1)
  103ef4:	8082                	ret

0000000000103ef6 <se_kac_int_status_check>:
  103ef6:	88aa                	mv	a7,a0
  103ef8:	57fd                	li	a5,-1
  103efa:	02054e03          	lbu	t3,32(a0)
  103efe:	020e0763          	beqz	t3,103f2c <se_kac_int_status_check+0x36>
  103f02:	5158                	lw	a4,36(a0)
  103f04:	08c00793          	li	a5,140
  103f08:	0ae7e163          	bltu	a5,a4,103faa <se_kac_int_status_check+0xb4>
  103f0c:	5514                	lw	a3,40(a0)
  103f0e:	08b00793          	li	a5,139
  103f12:	08d7ff63          	bleu	a3,a5,103fb0 <se_kac_int_status_check+0xba>
  103f16:	08c00793          	li	a5,140
  103f1a:	9f99                	subw	a5,a5,a4
  103f1c:	4d14                	lw	a3,24(a0)
  103f1e:	fff7c713          	not	a4,a5
  103f22:	2701                	sext.w	a4,a4
  103f24:	08d76963          	bltu	a4,a3,103fb6 <se_kac_int_status_check+0xc0>
  103f28:	9fb5                	addw	a5,a5,a3
  103f2a:	a019                	j	103f30 <se_kac_int_status_check+0x3a>
  103f2c:	08c00793          	li	a5,140
  103f30:	0088b703          	ld	a4,8(a7)
  103f34:	01073303          	ld	t1,16(a4)
  103f38:	1782                	slli	a5,a5,0x20
  103f3a:	9381                	srli	a5,a5,0x20
  103f3c:	979a                	add	a5,a5,t1
  103f3e:	1782                	slli	a5,a5,0x20
  103f40:	9381                	srli	a5,a5,0x20
  103f42:	4394                	lw	a3,0(a5)
  103f44:	2681                	sext.w	a3,a3
  103f46:	6785                	lui	a5,0x1
  103f48:	80078793          	addi	a5,a5,-2048 # 800 <dmem_print_size>
  103f4c:	8ff5                	and	a5,a5,a3
  103f4e:	e7bd                	bnez	a5,103fbc <se_kac_int_status_check+0xc6>
  103f50:	0f000513          	li	a0,240
  103f54:	4709                	li	a4,2
  103f56:	0007081b          	sext.w	a6,a4
  103f5a:	4609                	li	a2,2
  103f5c:	0b066b63          	bltu	a2,a6,104012 <se_kac_int_status_check+0x11c>
  103f60:	1006f693          	andi	a3,a3,256
  103f64:	c689                	beqz	a3,103f6e <se_kac_int_status_check+0x78>
  103f66:	1007e793          	ori	a5,a5,256
  103f6a:	0fc00513          	li	a0,252
  103f6e:	2705                	addiw	a4,a4,1
  103f70:	0007081b          	sext.w	a6,a4
  103f74:	c3b5                	beqz	a5,103fd8 <se_kac_int_status_check+0xe2>
  103f76:	040e0963          	beqz	t3,103fc8 <se_kac_int_status_check+0xd2>
  103f7a:	0248a683          	lw	a3,36(a7)
  103f7e:	08c00613          	li	a2,140
  103f82:	06d66863          	bltu	a2,a3,103ff2 <se_kac_int_status_check+0xfc>
  103f86:	0288ae03          	lw	t3,40(a7)
  103f8a:	08b00613          	li	a2,139
  103f8e:	07c67563          	bleu	t3,a2,103ff8 <se_kac_int_status_check+0x102>
  103f92:	08c00613          	li	a2,140
  103f96:	9e15                	subw	a2,a2,a3
  103f98:	0188a683          	lw	a3,24(a7)
  103f9c:	fff64893          	not	a7,a2
  103fa0:	2881                	sext.w	a7,a7
  103fa2:	04d8ee63          	bltu	a7,a3,103ffe <se_kac_int_status_check+0x108>
  103fa6:	9eb1                	addw	a3,a3,a2
  103fa8:	a015                	j	103fcc <se_kac_int_status_check+0xd6>
  103faa:	08c00793          	li	a5,140
  103fae:	b749                	j	103f30 <se_kac_int_status_check+0x3a>
  103fb0:	08c00793          	li	a5,140
  103fb4:	bfb5                	j	103f30 <se_kac_int_status_check+0x3a>
  103fb6:	08c00793          	li	a5,140
  103fba:	bf9d                	j	103f30 <se_kac_int_status_check+0x3a>
  103fbc:	0fc00513          	li	a0,252
  103fc0:	6785                	lui	a5,0x1
  103fc2:	80078793          	addi	a5,a5,-2048 # 800 <dmem_print_size>
  103fc6:	b779                	j	103f54 <se_kac_int_status_check+0x5e>
  103fc8:	08c00693          	li	a3,140
  103fcc:	1682                	slli	a3,a3,0x20
  103fce:	9281                	srli	a3,a3,0x20
  103fd0:	969a                	add	a3,a3,t1
  103fd2:	1682                	slli	a3,a3,0x20
  103fd4:	9281                	srli	a3,a3,0x20
  103fd6:	c29c                	sw	a5,0(a3)
  103fd8:	0f000793          	li	a5,240
  103fdc:	00f51663          	bne	a0,a5,103fe8 <se_kac_int_status_check+0xf2>
  103fe0:	c19c                	sw	a5,0(a1)
  103fe2:	0007081b          	sext.w	a6,a4
  103fe6:	2501                	sext.w	a0,a0
  103fe8:	0f000793          	li	a5,240
  103fec:	00f50c63          	beq	a0,a5,104004 <se_kac_int_status_check+0x10e>
  103ff0:	8082                	ret
  103ff2:	08c00693          	li	a3,140
  103ff6:	bfd9                	j	103fcc <se_kac_int_status_check+0xd6>
  103ff8:	08c00693          	li	a3,140
  103ffc:	bfc1                	j	103fcc <se_kac_int_status_check+0xd6>
  103ffe:	08c00693          	li	a3,140
  104002:	b7e9                	j	103fcc <se_kac_int_status_check+0xd6>
  104004:	478d                	li	a5,3
  104006:	00f80563          	beq	a6,a5,104010 <se_kac_int_status_check+0x11a>
  10400a:	0ff00513          	li	a0,255
  10400e:	b7cd                	j	103ff0 <se_kac_int_status_check+0xfa>
  104010:	8082                	ret
  104012:	0ff00513          	li	a0,255
  104016:	8082                	ret

0000000000104018 <intern_poll_engine_free>:
  104018:	1141                	addi	sp,sp,-16
  10401a:	e406                	sd	ra,8(sp)
  10401c:	e022                	sd	s0,0(sp)
  10401e:	4401                	li	s0,0
  104020:	a00d                	j	104042 <intern_poll_engine_free+0x2a>
  104022:	872e                	mv	a4,a1
  104024:	651c                	ld	a5,8(a0)
  104026:	6b9c                	ld	a5,16(a5)
  104028:	1702                	slli	a4,a4,0x20
  10402a:	9301                	srli	a4,a4,0x20
  10402c:	97ba                	add	a5,a5,a4
  10402e:	1782                	slli	a5,a5,0x20
  104030:	9381                	srli	a5,a5,0x20
  104032:	439c                	lw	a5,0(a5)
  104034:	8b9d                	andi	a5,a5,7
  104036:	2405                	addiw	s0,s0,1
  104038:	c3a1                	beqz	a5,104078 <intern_poll_engine_free+0x60>
  10403a:	080007b7          	lui	a5,0x8000
  10403e:	0287ed63          	bltu	a5,s0,104078 <intern_poll_engine_free+0x60>
  104042:	02054783          	lbu	a5,32(a0)
  104046:	dff1                	beqz	a5,104022 <intern_poll_engine_free+0xa>
  104048:	5158                	lw	a4,36(a0)
  10404a:	02e5e163          	bltu	a1,a4,10406c <intern_poll_engine_free+0x54>
  10404e:	551c                	lw	a5,40(a0)
  104050:	02b7e063          	bltu	a5,a1,104070 <intern_poll_engine_free+0x58>
  104054:	40e5873b          	subw	a4,a1,a4
  104058:	01852803          	lw	a6,24(a0)
  10405c:	fff74793          	not	a5,a4
  104060:	2781                	sext.w	a5,a5
  104062:	0107e963          	bltu	a5,a6,104074 <intern_poll_engine_free+0x5c>
  104066:	0107073b          	addw	a4,a4,a6
  10406a:	bf6d                	j	104024 <intern_poll_engine_free+0xc>
  10406c:	872e                	mv	a4,a1
  10406e:	bf5d                	j	104024 <intern_poll_engine_free+0xc>
  104070:	872e                	mv	a4,a1
  104072:	bf4d                	j	104024 <intern_poll_engine_free+0xc>
  104074:	872e                	mv	a4,a1
  104076:	b77d                	j	104024 <intern_poll_engine_free+0xc>
  104078:	85b2                	mv	a1,a2
  10407a:	e7dff0ef          	jal	ra,103ef6 <se_kac_int_status_check>
  10407e:	2501                	sext.w	a0,a0
  104080:	0f000793          	li	a5,240
  104084:	00f51663          	bne	a0,a5,104090 <intern_poll_engine_free+0x78>
  104088:	080007b7          	lui	a5,0x8000
  10408c:	0087e663          	bltu	a5,s0,104098 <intern_poll_engine_free+0x80>
  104090:	60a2                	ld	ra,8(sp)
  104092:	6402                	ld	s0,0(sp)
  104094:	0141                	addi	sp,sp,16
  104096:	8082                	ret
  104098:	0ff00513          	li	a0,255
  10409c:	bfd5                	j	104090 <intern_poll_engine_free+0x78>

000000000010409e <se_check_hw_err_status>:
  10409e:	87aa                	mv	a5,a0
  1040a0:	c1dd                	beqz	a1,104146 <se_check_hw_err_status+0xa8>
  1040a2:	02054703          	lbu	a4,32(a0)
  1040a6:	c30d                	beqz	a4,1040c8 <se_check_hw_err_status+0x2a>
  1040a8:	5154                	lw	a3,36(a0)
  1040aa:	04d5ea63          	bltu	a1,a3,1040fe <se_check_hw_err_status+0x60>
  1040ae:	5518                	lw	a4,40(a0)
  1040b0:	04b76963          	bltu	a4,a1,104102 <se_check_hw_err_status+0x64>
  1040b4:	40d586bb          	subw	a3,a1,a3
  1040b8:	4d08                	lw	a0,24(a0)
  1040ba:	fff6c713          	not	a4,a3
  1040be:	2701                	sext.w	a4,a4
  1040c0:	04a76363          	bltu	a4,a0,104106 <se_check_hw_err_status+0x68>
  1040c4:	9ea9                	addw	a3,a3,a0
  1040c6:	a011                	j	1040ca <se_check_hw_err_status+0x2c>
  1040c8:	86ae                	mv	a3,a1
  1040ca:	6798                	ld	a4,8(a5)
  1040cc:	6b18                	ld	a4,16(a4)
  1040ce:	1682                	slli	a3,a3,0x20
  1040d0:	9281                	srli	a3,a3,0x20
  1040d2:	9736                	add	a4,a4,a3
  1040d4:	1702                	slli	a4,a4,0x20
  1040d6:	9301                	srli	a4,a4,0x20
  1040d8:	4318                	lw	a4,0(a4)
  1040da:	2701                	sext.w	a4,a4
  1040dc:	0f000693          	li	a3,240
  1040e0:	c214                	sw	a3,0(a2)
  1040e2:	e705                	bnez	a4,10410a <se_check_hw_err_status+0x6c>
  1040e4:	0f000513          	li	a0,240
  1040e8:	679c                	ld	a5,8(a5)
  1040ea:	cb89                	beqz	a5,1040fc <se_check_hw_err_status+0x5e>
  1040ec:	6b9c                	ld	a5,16(a5)
  1040ee:	11078793          	addi	a5,a5,272 # 8000110 <_partition_rtos_stack_top+0x7e7b300>
  1040f2:	1782                	slli	a5,a5,0x20
  1040f4:	9381                	srli	a5,a5,0x20
  1040f6:	80000737          	lui	a4,0x80000
  1040fa:	c398                	sw	a4,0(a5)
  1040fc:	8082                	ret
  1040fe:	86ae                	mv	a3,a1
  104100:	b7e9                	j	1040ca <se_check_hw_err_status+0x2c>
  104102:	86ae                	mv	a3,a1
  104104:	b7d9                	j	1040ca <se_check_hw_err_status+0x2c>
  104106:	86ae                	mv	a3,a1
  104108:	b7c9                	j	1040ca <se_check_hw_err_status+0x2c>
  10410a:	0207c683          	lbu	a3,32(a5)
  10410e:	c28d                	beqz	a3,104130 <se_check_hw_err_status+0x92>
  104110:	53d4                	lw	a3,36(a5)
  104112:	00d5ef63          	bltu	a1,a3,104130 <se_check_hw_err_status+0x92>
  104116:	5790                	lw	a2,40(a5)
  104118:	00b66c63          	bltu	a2,a1,104130 <se_check_hw_err_status+0x92>
  10411c:	40d586bb          	subw	a3,a1,a3
  104120:	4f88                	lw	a0,24(a5)
  104122:	fff6c613          	not	a2,a3
  104126:	2601                	sext.w	a2,a2
  104128:	00a66463          	bltu	a2,a0,104130 <se_check_hw_err_status+0x92>
  10412c:	00a685bb          	addw	a1,a3,a0
  104130:	6794                	ld	a3,8(a5)
  104132:	6a94                	ld	a3,16(a3)
  104134:	1582                	slli	a1,a1,0x20
  104136:	9181                	srli	a1,a1,0x20
  104138:	95b6                	add	a1,a1,a3
  10413a:	1582                	slli	a1,a1,0x20
  10413c:	9181                	srli	a1,a1,0x20
  10413e:	c198                	sw	a4,0(a1)
  104140:	0f800513          	li	a0,248
  104144:	b755                	j	1040e8 <se_check_hw_err_status+0x4a>
  104146:	0ff00513          	li	a0,255
  10414a:	bf79                	j	1040e8 <se_check_hw_err_status+0x4a>

000000000010414c <aes_check_aes_ctr_counter_overflow>:
  10414c:	495c                	lw	a5,20(a0)
  10414e:	6705                	lui	a4,0x1
  104150:	8ff9                	and	a5,a5,a4
  104152:	e781                	bnez	a5,10415a <aes_check_aes_ctr_counter_overflow+0xe>
  104154:	0f200513          	li	a0,242
  104158:	8082                	ret
  10415a:	1101                	addi	sp,sp,-32
  10415c:	ec06                	sd	ra,24(sp)
  10415e:	e822                	sd	s0,16(sp)
  104160:	e426                	sd	s1,8(sp)
  104162:	842e                	mv	s0,a1
  104164:	84aa                	mv	s1,a0
  104166:	4585                	li	a1,1
  104168:	06850513          	addi	a0,a0,104
  10416c:	befff0ef          	jal	ra,103d5a <se_util_buf_to_u64>
  104170:	02041593          	slli	a1,s0,0x20
  104174:	9181                	srli	a1,a1,0x20
  104176:	0704c403          	lbu	s0,112(s1)
  10417a:	028585b3          	mul	a1,a1,s0
  10417e:	95aa                	add	a1,a1,a0
  104180:	00a5e963          	bltu	a1,a0,104192 <aes_check_aes_ctr_counter_overflow+0x46>
  104184:	0f000513          	li	a0,240
  104188:	60e2                	ld	ra,24(sp)
  10418a:	6442                	ld	s0,16(sp)
  10418c:	64a2                	ld	s1,8(sp)
  10418e:	6105                	addi	sp,sp,32
  104190:	8082                	ret
  104192:	0f400513          	li	a0,244
  104196:	bfcd                	j	104188 <aes_check_aes_ctr_counter_overflow+0x3c>

0000000000104198 <se_update_aes_ctr_linear_counter>:
  104198:	495c                	lw	a5,20(a0)
  10419a:	6705                	lui	a4,0x1
  10419c:	8ff9                	and	a5,a5,a4
  10419e:	e781                	bnez	a5,1041a6 <se_update_aes_ctr_linear_counter+0xe>
  1041a0:	0f200513          	li	a0,242
  1041a4:	8082                	ret
  1041a6:	7179                	addi	sp,sp,-48
  1041a8:	f406                	sd	ra,40(sp)
  1041aa:	f022                	sd	s0,32(sp)
  1041ac:	ec26                	sd	s1,24(sp)
  1041ae:	e84a                	sd	s2,16(sp)
  1041b0:	e44e                	sd	s3,8(sp)
  1041b2:	842e                	mv	s0,a1
  1041b4:	84aa                	mv	s1,a0
  1041b6:	06850913          	addi	s2,a0,104
  1041ba:	4585                	li	a1,1
  1041bc:	854a                	mv	a0,s2
  1041be:	b9dff0ef          	jal	ra,103d5a <se_util_buf_to_u64>
  1041c2:	1402                	slli	s0,s0,0x20
  1041c4:	9001                	srli	s0,s0,0x20
  1041c6:	0704c583          	lbu	a1,112(s1)
  1041ca:	02b40433          	mul	s0,s0,a1
  1041ce:	942a                	add	s0,s0,a0
  1041d0:	02a46063          	bltu	s0,a0,1041f0 <se_update_aes_ctr_linear_counter+0x58>
  1041d4:	4605                	li	a2,1
  1041d6:	85ca                	mv	a1,s2
  1041d8:	8522                	mv	a0,s0
  1041da:	c6fff0ef          	jal	ra,103e48 <se_util_u64_to_buf>
  1041de:	0f000513          	li	a0,240
  1041e2:	70a2                	ld	ra,40(sp)
  1041e4:	7402                	ld	s0,32(sp)
  1041e6:	64e2                	ld	s1,24(sp)
  1041e8:	6942                	ld	s2,16(sp)
  1041ea:	69a2                	ld	s3,8(sp)
  1041ec:	6145                	addi	sp,sp,48
  1041ee:	8082                	ret
  1041f0:	06048493          	addi	s1,s1,96
  1041f4:	4585                	li	a1,1
  1041f6:	8526                	mv	a0,s1
  1041f8:	b63ff0ef          	jal	ra,103d5a <se_util_buf_to_u64>
  1041fc:	89aa                	mv	s3,a0
  1041fe:	0505                	addi	a0,a0,1
  104200:	01356763          	bltu	a0,s3,10420e <se_update_aes_ctr_linear_counter+0x76>
  104204:	4605                	li	a2,1
  104206:	85a6                	mv	a1,s1
  104208:	c41ff0ef          	jal	ra,103e48 <se_util_u64_to_buf>
  10420c:	b7e1                	j	1041d4 <se_update_aes_ctr_linear_counter+0x3c>
  10420e:	ffffe517          	auipc	a0,0xffffe
  104212:	87250513          	addi	a0,a0,-1934 # 101a80 <hw_cdev.2592+0x100>
  104216:	af3ff0ef          	jal	ra,103d08 <se_util_arith_emsg>
  10421a:	854e                	mv	a0,s3
  10421c:	b7e5                	j	104204 <se_update_aes_ctr_linear_counter+0x6c>

000000000010421e <se_update_aes_gcm_linear_counter>:
  10421e:	495c                	lw	a5,20(a0)
  104220:	6705                	lui	a4,0x1
  104222:	8ff9                	and	a5,a5,a4
  104224:	c3d1                	beqz	a5,1042a8 <se_update_aes_gcm_linear_counter+0x8a>
  104226:	7130                	ld	a2,96(a0)
  104228:	4658                	lw	a4,12(a2)
  10422a:	0187551b          	srliw	a0,a4,0x18
  10422e:	0087579b          	srliw	a5,a4,0x8
  104232:	66c1                	lui	a3,0x10
  104234:	f0068693          	addi	a3,a3,-256 # ff00 <__fmc_imem_size+0x8900>
  104238:	8ff5                	and	a5,a5,a3
  10423a:	2781                	sext.w	a5,a5
  10423c:	8fc9                	or	a5,a5,a0
  10423e:	2781                	sext.w	a5,a5
  104240:	0087169b          	slliw	a3,a4,0x8
  104244:	00ff0537          	lui	a0,0xff0
  104248:	8ee9                	and	a3,a3,a0
  10424a:	8fd5                	or	a5,a5,a3
  10424c:	0187171b          	slliw	a4,a4,0x18
  104250:	8fd9                	or	a5,a5,a4
  104252:	2781                	sext.w	a5,a5
  104254:	9dbd                	addw	a1,a1,a5
  104256:	0005871b          	sext.w	a4,a1
  10425a:	02f76a63          	bltu	a4,a5,10428e <se_update_aes_gcm_linear_counter+0x70>
  10425e:	0185d69b          	srliw	a3,a1,0x18
  104262:	0085d79b          	srliw	a5,a1,0x8
  104266:	6741                	lui	a4,0x10
  104268:	f0070713          	addi	a4,a4,-256 # ff00 <__fmc_imem_size+0x8900>
  10426c:	8ff9                	and	a5,a5,a4
  10426e:	2781                	sext.w	a5,a5
  104270:	8fd5                	or	a5,a5,a3
  104272:	2781                	sext.w	a5,a5
  104274:	0085971b          	slliw	a4,a1,0x8
  104278:	00ff06b7          	lui	a3,0xff0
  10427c:	8f75                	and	a4,a4,a3
  10427e:	8fd9                	or	a5,a5,a4
  104280:	0185959b          	slliw	a1,a1,0x18
  104284:	8ddd                	or	a1,a1,a5
  104286:	c64c                	sw	a1,12(a2)
  104288:	0f000513          	li	a0,240
  10428c:	8082                	ret
  10428e:	1141                	addi	sp,sp,-16
  104290:	e406                	sd	ra,8(sp)
  104292:	ffffd517          	auipc	a0,0xffffd
  104296:	7ee50513          	addi	a0,a0,2030 # 101a80 <hw_cdev.2592+0x100>
  10429a:	a6fff0ef          	jal	ra,103d08 <se_util_arith_emsg>
  10429e:	0f700513          	li	a0,247
  1042a2:	60a2                	ld	ra,8(sp)
  1042a4:	0141                	addi	sp,sp,16
  1042a6:	8082                	ret
  1042a8:	0f200513          	li	a0,242
  1042ac:	8082                	ret

00000000001042ae <aes_check_aes_gcm_counter_overflow>:
  1042ae:	495c                	lw	a5,20(a0)
  1042b0:	6705                	lui	a4,0x1
  1042b2:	8ff9                	and	a5,a5,a4
  1042b4:	cbb9                	beqz	a5,10430a <aes_check_aes_gcm_counter_overflow+0x5c>
  1042b6:	713c                	ld	a5,96(a0)
  1042b8:	47d8                	lw	a4,12(a5)
  1042ba:	0187561b          	srliw	a2,a4,0x18
  1042be:	0087579b          	srliw	a5,a4,0x8
  1042c2:	66c1                	lui	a3,0x10
  1042c4:	f0068693          	addi	a3,a3,-256 # ff00 <__fmc_imem_size+0x8900>
  1042c8:	8ff5                	and	a5,a5,a3
  1042ca:	2781                	sext.w	a5,a5
  1042cc:	8fd1                	or	a5,a5,a2
  1042ce:	2781                	sext.w	a5,a5
  1042d0:	0087169b          	slliw	a3,a4,0x8
  1042d4:	00ff0637          	lui	a2,0xff0
  1042d8:	8ef1                	and	a3,a3,a2
  1042da:	8fd5                	or	a5,a5,a3
  1042dc:	0187171b          	slliw	a4,a4,0x18
  1042e0:	8fd9                	or	a5,a5,a4
  1042e2:	2781                	sext.w	a5,a5
  1042e4:	9dbd                	addw	a1,a1,a5
  1042e6:	00f5e563          	bltu	a1,a5,1042f0 <aes_check_aes_gcm_counter_overflow+0x42>
  1042ea:	0f000513          	li	a0,240
  1042ee:	8082                	ret
  1042f0:	1141                	addi	sp,sp,-16
  1042f2:	e406                	sd	ra,8(sp)
  1042f4:	ffffd517          	auipc	a0,0xffffd
  1042f8:	78c50513          	addi	a0,a0,1932 # 101a80 <hw_cdev.2592+0x100>
  1042fc:	a0dff0ef          	jal	ra,103d08 <se_util_arith_emsg>
  104300:	0f700513          	li	a0,247
  104304:	60a2                	ld	ra,8(sp)
  104306:	0141                	addi	sp,sp,16
  104308:	8082                	ret
  10430a:	0f200513          	li	a0,242
  10430e:	8082                	ret

0000000000104310 <aes_check_counter_overflow>:
  104310:	4918                	lw	a4,16(a0)
  104312:	6785                	lui	a5,0x1
  104314:	07a1                	addi	a5,a5,8
  104316:	00f70e63          	beq	a4,a5,104332 <aes_check_counter_overflow+0x22>
  10431a:	6785                	lui	a5,0x1
  10431c:	0789                	addi	a5,a5,2
  10431e:	04f70263          	beq	a4,a5,104362 <aes_check_counter_overflow+0x52>
  104322:	6785                	lui	a5,0x1
  104324:	07a5                	addi	a5,a5,9
  104326:	00f70463          	beq	a4,a5,10432e <aes_check_counter_overflow+0x1e>
  10432a:	4781                	li	a5,0
  10432c:	a021                	j	104334 <aes_check_counter_overflow+0x24>
  10432e:	4785                	li	a5,1
  104330:	a011                	j	104334 <aes_check_counter_overflow+0x24>
  104332:	4785                	li	a5,1
  104334:	c7b9                	beqz	a5,104382 <aes_check_counter_overflow+0x72>
  104336:	1101                	addi	sp,sp,-32
  104338:	ec06                	sd	ra,24(sp)
  10433a:	e822                	sd	s0,16(sp)
  10433c:	e426                	sd	s1,8(sp)
  10433e:	84ae                	mv	s1,a1
  104340:	842a                	mv	s0,a0
  104342:	6785                	lui	a5,0x1
  104344:	0789                	addi	a5,a5,2
  104346:	02f70063          	beq	a4,a5,104366 <aes_check_counter_overflow+0x56>
  10434a:	0f000513          	li	a0,240
  10434e:	4818                	lw	a4,16(s0)
  104350:	6785                	lui	a5,0x1
  104352:	07a5                	addi	a5,a5,9
  104354:	02f70163          	beq	a4,a5,104376 <aes_check_counter_overflow+0x66>
  104358:	60e2                	ld	ra,24(sp)
  10435a:	6442                	ld	s0,16(sp)
  10435c:	64a2                	ld	s1,8(sp)
  10435e:	6105                	addi	sp,sp,32
  104360:	8082                	ret
  104362:	4785                	li	a5,1
  104364:	bfc1                	j	104334 <aes_check_counter_overflow+0x24>
  104366:	de7ff0ef          	jal	ra,10414c <aes_check_aes_ctr_counter_overflow>
  10436a:	2501                	sext.w	a0,a0
  10436c:	0f000793          	li	a5,240
  104370:	fef514e3          	bne	a0,a5,104358 <aes_check_counter_overflow+0x48>
  104374:	bfe9                	j	10434e <aes_check_counter_overflow+0x3e>
  104376:	85a6                	mv	a1,s1
  104378:	8522                	mv	a0,s0
  10437a:	f35ff0ef          	jal	ra,1042ae <aes_check_aes_gcm_counter_overflow>
  10437e:	2501                	sext.w	a0,a0
  104380:	bfe1                	j	104358 <aes_check_counter_overflow+0x48>
  104382:	0ff00513          	li	a0,255
  104386:	8082                	ret

0000000000104388 <tegra_start_se0_operation_locked>:
  104388:	651c                	ld	a5,8(a0)
  10438a:	cb89                	beqz	a5,10439c <tegra_start_se0_operation_locked+0x14>
  10438c:	6b9c                	ld	a5,16(a5)
  10438e:	11078793          	addi	a5,a5,272 # 1110 <dmem_sk_size+0x110>
  104392:	1782                	slli	a5,a5,0x20
  104394:	9381                	srli	a5,a5,0x20
  104396:	80000737          	lui	a4,0x80000
  10439a:	c398                	sw	a4,0(a5)
  10439c:	67c1                	lui	a5,0x10
  10439e:	0785                	addi	a5,a5,1
  1043a0:	8ddd                	or	a1,a1,a5
  1043a2:	491c                	lw	a5,16(a0)
  1043a4:	4745                	li	a4,17
  1043a6:	04e78c63          	beq	a5,a4,1043fe <tegra_start_se0_operation_locked+0x76>
  1043aa:	474d                	li	a4,19
  1043ac:	04e78d63          	beq	a5,a4,104406 <tegra_start_se0_operation_locked+0x7e>
  1043b0:	4741                	li	a4,16
  1043b2:	00e78563          	beq	a5,a4,1043bc <tegra_start_se0_operation_locked+0x34>
  1043b6:	0f900513          	li	a0,249
  1043ba:	8082                	ret
  1043bc:	6785                	lui	a5,0x1
  1043be:	03878793          	addi	a5,a5,56 # 1038 <dmem_sk_size+0x38>
  1043c2:	02054703          	lbu	a4,32(a0)
  1043c6:	c30d                	beqz	a4,1043e8 <tegra_start_se0_operation_locked+0x60>
  1043c8:	5158                	lw	a4,36(a0)
  1043ca:	00e7ef63          	bltu	a5,a4,1043e8 <tegra_start_se0_operation_locked+0x60>
  1043ce:	5514                	lw	a3,40(a0)
  1043d0:	00f6ec63          	bltu	a3,a5,1043e8 <tegra_start_se0_operation_locked+0x60>
  1043d4:	40e7873b          	subw	a4,a5,a4
  1043d8:	4d10                	lw	a2,24(a0)
  1043da:	fff74693          	not	a3,a4
  1043de:	2681                	sext.w	a3,a3
  1043e0:	00c6e463          	bltu	a3,a2,1043e8 <tegra_start_se0_operation_locked+0x60>
  1043e4:	00c707bb          	addw	a5,a4,a2
  1043e8:	6518                	ld	a4,8(a0)
  1043ea:	6b18                	ld	a4,16(a4)
  1043ec:	1782                	slli	a5,a5,0x20
  1043ee:	9381                	srli	a5,a5,0x20
  1043f0:	97ba                	add	a5,a5,a4
  1043f2:	1782                	slli	a5,a5,0x20
  1043f4:	9381                	srli	a5,a5,0x20
  1043f6:	c38c                	sw	a1,0(a5)
  1043f8:	0f000513          	li	a0,240
  1043fc:	8082                	ret
  1043fe:	6789                	lui	a5,0x2
  104400:	03878793          	addi	a5,a5,56 # 2038 <imem_wl_size+0x38>
  104404:	bf7d                	j	1043c2 <tegra_start_se0_operation_locked+0x3a>
  104406:	6791                	lui	a5,0x4
  104408:	07c78793          	addi	a5,a5,124 # 407c <imem_shr_size+0x7c>
  10440c:	bf5d                	j	1043c2 <tegra_start_se0_operation_locked+0x3a>

000000000010440e <se_wait_engine_free>:
  10440e:	1101                	addi	sp,sp,-32
  104410:	ec06                	sd	ra,24(sp)
  104412:	0ff00793          	li	a5,255
  104416:	c63e                	sw	a5,12(sp)
  104418:	491c                	lw	a5,16(a0)
  10441a:	4745                	li	a4,17
  10441c:	02e78963          	beq	a5,a4,10444e <se_wait_engine_free+0x40>
  104420:	474d                	li	a4,19
  104422:	02e78a63          	beq	a5,a4,104456 <se_wait_engine_free+0x48>
  104426:	4741                	li	a4,16
  104428:	00e78563          	beq	a5,a4,104432 <se_wait_engine_free+0x24>
  10442c:	0f900513          	li	a0,249
  104430:	a801                	j	104440 <se_wait_engine_free+0x32>
  104432:	6585                	lui	a1,0x1
  104434:	0f458593          	addi	a1,a1,244 # 10f4 <dmem_sk_size+0xf4>
  104438:	0070                	addi	a2,sp,12
  10443a:	bdfff0ef          	jal	ra,104018 <intern_poll_engine_free>
  10443e:	2501                	sext.w	a0,a0
  104440:	0f000793          	li	a5,240
  104444:	00f50d63          	beq	a0,a5,10445e <se_wait_engine_free+0x50>
  104448:	60e2                	ld	ra,24(sp)
  10444a:	6105                	addi	sp,sp,32
  10444c:	8082                	ret
  10444e:	6589                	lui	a1,0x2
  104450:	0f458593          	addi	a1,a1,244 # 20f4 <imem_wl_size+0xf4>
  104454:	b7d5                	j	104438 <se_wait_engine_free+0x2a>
  104456:	6591                	lui	a1,0x4
  104458:	08858593          	addi	a1,a1,136 # 4088 <imem_shr_size+0x88>
  10445c:	bff1                	j	104438 <se_wait_engine_free+0x2a>
  10445e:	4532                	lw	a0,12(sp)
  104460:	b7e5                	j	104448 <se_wait_engine_free+0x3a>

0000000000104462 <se_engine_get_err_status>:
  104462:	1101                	addi	sp,sp,-32
  104464:	ec06                	sd	ra,24(sp)
  104466:	0ff00793          	li	a5,255
  10446a:	c63e                	sw	a5,12(sp)
  10446c:	491c                	lw	a5,16(a0)
  10446e:	4745                	li	a4,17
  104470:	04e78263          	beq	a5,a4,1044b4 <se_engine_get_err_status+0x52>
  104474:	474d                	li	a4,19
  104476:	04e78363          	beq	a5,a4,1044bc <se_engine_get_err_status+0x5a>
  10447a:	4741                	li	a4,16
  10447c:	00e78b63          	beq	a5,a4,104492 <se_engine_get_err_status+0x30>
  104480:	0f900513          	li	a0,249
  104484:	0f000793          	li	a5,240
  104488:	02f50e63          	beq	a0,a5,1044c4 <se_engine_get_err_status+0x62>
  10448c:	60e2                	ld	ra,24(sp)
  10448e:	6105                	addi	sp,sp,32
  104490:	8082                	ret
  104492:	6785                	lui	a5,0x1
  104494:	0f878793          	addi	a5,a5,248 # 10f8 <dmem_sk_size+0xf8>
  104498:	86ae                	mv	a3,a1
  10449a:	0070                	addi	a2,sp,12
  10449c:	85be                	mv	a1,a5
  10449e:	c01ff0ef          	jal	ra,10409e <se_check_hw_err_status>
  1044a2:	2501                	sext.w	a0,a0
  1044a4:	0f000793          	li	a5,240
  1044a8:	fcf51ee3          	bne	a0,a5,104484 <se_engine_get_err_status+0x22>
  1044ac:	4732                	lw	a4,12(sp)
  1044ae:	87ba                	mv	a5,a4
  1044b0:	c63e                	sw	a5,12(sp)
  1044b2:	bfc9                	j	104484 <se_engine_get_err_status+0x22>
  1044b4:	6789                	lui	a5,0x2
  1044b6:	0f878793          	addi	a5,a5,248 # 20f8 <imem_wl_size+0xf8>
  1044ba:	bff9                	j	104498 <se_engine_get_err_status+0x36>
  1044bc:	6791                	lui	a5,0x4
  1044be:	08c78793          	addi	a5,a5,140 # 408c <imem_shr_size+0x8c>
  1044c2:	bfd9                	j	104498 <se_engine_get_err_status+0x36>
  1044c4:	4532                	lw	a0,12(sp)
  1044c6:	b7d9                	j	10448c <se_engine_get_err_status+0x2a>

00000000001044c8 <se_update_linear_counter>:
  1044c8:	4918                	lw	a4,16(a0)
  1044ca:	6785                	lui	a5,0x1
  1044cc:	07a1                	addi	a5,a5,8
  1044ce:	00f70e63          	beq	a4,a5,1044ea <se_update_linear_counter+0x22>
  1044d2:	6785                	lui	a5,0x1
  1044d4:	0789                	addi	a5,a5,2
  1044d6:	04f70263          	beq	a4,a5,10451a <se_update_linear_counter+0x52>
  1044da:	6785                	lui	a5,0x1
  1044dc:	07a5                	addi	a5,a5,9
  1044de:	00f70463          	beq	a4,a5,1044e6 <se_update_linear_counter+0x1e>
  1044e2:	4781                	li	a5,0
  1044e4:	a021                	j	1044ec <se_update_linear_counter+0x24>
  1044e6:	4785                	li	a5,1
  1044e8:	a011                	j	1044ec <se_update_linear_counter+0x24>
  1044ea:	4785                	li	a5,1
  1044ec:	c7b9                	beqz	a5,10453a <se_update_linear_counter+0x72>
  1044ee:	1101                	addi	sp,sp,-32
  1044f0:	ec06                	sd	ra,24(sp)
  1044f2:	e822                	sd	s0,16(sp)
  1044f4:	e426                	sd	s1,8(sp)
  1044f6:	84ae                	mv	s1,a1
  1044f8:	842a                	mv	s0,a0
  1044fa:	6785                	lui	a5,0x1
  1044fc:	0789                	addi	a5,a5,2
  1044fe:	02f70063          	beq	a4,a5,10451e <se_update_linear_counter+0x56>
  104502:	0f000513          	li	a0,240
  104506:	4818                	lw	a4,16(s0)
  104508:	6785                	lui	a5,0x1
  10450a:	07a5                	addi	a5,a5,9
  10450c:	02f70163          	beq	a4,a5,10452e <se_update_linear_counter+0x66>
  104510:	60e2                	ld	ra,24(sp)
  104512:	6442                	ld	s0,16(sp)
  104514:	64a2                	ld	s1,8(sp)
  104516:	6105                	addi	sp,sp,32
  104518:	8082                	ret
  10451a:	4785                	li	a5,1
  10451c:	bfc1                	j	1044ec <se_update_linear_counter+0x24>
  10451e:	c7bff0ef          	jal	ra,104198 <se_update_aes_ctr_linear_counter>
  104522:	2501                	sext.w	a0,a0
  104524:	0f000793          	li	a5,240
  104528:	fef514e3          	bne	a0,a5,104510 <se_update_linear_counter+0x48>
  10452c:	bfe9                	j	104506 <se_update_linear_counter+0x3e>
